(lp0
(lp1
F200.0
aF1800.0
aF1.0
a(lp2
F14294.48620000002
aa(lp3
F29545.8
aa(lp4
F2386.21182
aa(lp5
F1332.9677730537992
aaa(lp6
F200.0
aF700.0
aF1.0
a(lp7
F12439.52929999999
aa(lp8
F23703.8
aa(lp9
F1936.70948
aa(lp10
F1243.9528258740352
aaa(lp11
F200.0
aF2000.0
aF1.0
a(lp12
F16141.908300000021
aa(lp13
F29545.8
aa(lp14
F2386.21182
aa(lp15
F1415.739026445201
aaa(lp16
F200.0
aF1300.0
aF1.0
a(lp17
F12215.141299999988
aa(lp18
F23703.8
aa(lp19
F1936.70948
aa(lp20
F1233.9155959789136
aaa(lp21
F200.0
aF1400.0
aF1.0
a(lp22
F11840.02049999999
aa(lp23
F23703.8
aa(lp24
F1936.70948
aa(lp25
F1214.7604105336975
aaa(lp26
F200.0
aF400.0
aF1.0
a(lp27
F17027.00120000002
aa(lp28
F29545.8
aa(lp29
F2386.21182
aa(lp30
F1460.0531521146775
aaa(lp31
F200.0
aF1900.0
aF1.0
a(lp32
F13711.652399999988
aa(lp33
F23703.8
aa(lp34
F1936.70948
aa(lp35
F1307.3546775837065
aaa(lp36
F200.0
aF1700.0
aF1.0
a(lp37
F12651.016599999988
aa(lp38
F23703.8
aa(lp39
F1936.70948
aa(lp40
F1252.637308641251
aaa(lp41
F200.0
aF500.0
aF1.0
a(lp42
F14371.214199999988
aa(lp43
F23703.8
aa(lp44
F1936.70948
aa(lp45
F1334.3336565492145
aaa(lp46
F200.0
aF1500.0
aF1.0
a(lp47
F13711.804199999986
aa(lp48
F23703.8
aa(lp49
F1936.70948
aa(lp50
F1307.3692443223515
aaa(lp51
F200.0
aF100.0
aF1.0
a(lp52
F13398.37859999999
aa(lp53
F23703.8
aa(lp54
F1936.70948
aa(lp55
F1289.259660813134
aaa(lp56
F200.0
aF600.0
aF1.0
a(lp57
F13466.633399999986
aa(lp58
F23703.8
aa(lp59
F1936.70948
aa(lp60
F1295.8274298686524
aaa(lp61
F200.0
aF1000.0
aF1.0
a(lp62
F21005.207700000024
aa(lp63
F29545.8
aa(lp64
F2386.21182
aa(lp65
F1615.7854408924493
aaa(lp66
F200.0
aF1200.0
aF1.0
a(lp67
F12905.05389999999
aa(lp68
F23703.8
aa(lp69
F1936.70948
aa(lp70
F1265.4446582130715
aaa(lp71
F200.0
aF300.0
aF1.0
a(lp72
F11843.32559999999
aa(lp73
F23703.8
aa(lp74
F1936.70948
aa(lp75
F1215.0993819437147
aaa(lp76
F200.0
aF1600.0
aF1.0
a(lp77
F12420.197799999987
aa(lp78
F23703.8
aa(lp79
F1936.70948
aa(lp80
F1248.2767689899533
aaa(lp81
F200.0
aF900.0
aF1.0
a(lp82
F12313.815899999989
aa(lp83
F23703.8
aa(lp84
F1936.70948
aa(lp85
F1237.5850976801544
aaa(lp86
F200.0
aF800.0
aF1.0
a(lp87
F10588.181100000013
aa(lp88
F19545.399999999998
aa(lp89
F1683.89532
aa(lp90
F1148.4494446861836
aaa(lp91
F200.0
aF1100.0
aF1.0
a(lp92
F13575.381999999989
aa(lp93
F23703.8
aa(lp94
F1936.70948
aa(lp95
F1300.2858331920704
aaa(lp96
F200.0
aF200.0
aF1.0
a(lp97
F15253.44590000002
aa(lp98
F29545.8
aa(lp99
F2386.21182
aa(lp100
F1375.3567300885995
aaa(lp101
F300.0
aF2000.0
aF1.0
a(lp102
F2874.3219599999998
aa(lp103
F3529.12
aa(lp104
F183.784812
aa(lp105
F158.46649488141017
aaa(lp106
F300.0
aF400.0
aF1.0
a(lp107
F2801.8765599999997
aa(lp108
F3529.12
aa(lp109
F183.784812
aa(lp110
F156.87497289242793
aaa(lp111
F300.0
aF1000.0
aF1.0
a(lp112
F2798.28166
aa(lp113
F3529.12
aa(lp114
F183.784812
aa(lp115
F156.42867972338067
aaa(lp116
F300.0
aF200.0
aF1.0
a(lp117
F2660.1675800000003
aa(lp118
F3529.12
aa(lp119
F183.784812
aa(lp120
F152.57105085828044
aaa(lp121
F300.0
aF1600.0
aF1.0
a(lp122
F2979.69002
aa(lp123
F3529.12
aa(lp124
F183.784812
aa(lp125
F161.83457689875794
aaa(lp126
F300.0
aF1300.0
aF1.0
a(lp127
F2737.53222
aa(lp128
F3529.12
aa(lp129
F183.784812
aa(lp130
F154.98225356472267
aaa(lp131
F300.0
aF800.0
aF1.0
a(lp132
F2426.27368
aa(lp133
F3529.12
aa(lp134
F183.784812
aa(lp135
F145.51822085223554
aaa(lp136
F300.0
aF700.0
aF1.0
a(lp137
F2551.98478
aa(lp138
F3529.12
aa(lp139
F183.784812
aa(lp140
F149.60003422459502
aaa(lp141
F300.0
aF300.0
aF1.0
a(lp142
F3023.0832
aa(lp143
F3529.12
aa(lp144
F183.784812
aa(lp145
F162.9937155843746
aaa(lp146
F300.0
aF900.0
aF1.0
a(lp147
F2637.20392
aa(lp148
F3529.12
aa(lp149
F183.784812
aa(lp150
F151.7540627462738
aaa(lp151
F300.0
aF600.0
aF1.0
a(lp152
F2501.2886399999998
aa(lp153
F3529.12
aa(lp154
F183.784812
aa(lp155
F147.64638566521023
aaa(lp156
F300.0
aF1400.0
aF1.0
a(lp157
F2566.7958599999997
aa(lp158
F3529.12
aa(lp159
F183.784812
aa(lp160
F149.95379128251474
aaa(lp161
F300.0
aF500.0
aF1.0
a(lp162
F2817.11636
aa(lp163
F3529.12
aa(lp164
F183.784812
aa(lp165
F157.2361150626662
aaa(lp166
F300.0
aF1200.0
aF1.0
a(lp167
F2265.33486
aa(lp168
F3529.12
aa(lp169
F183.784812
aa(lp170
F140.49012265636327
aaa(lp171
F300.0
aF100.0
aF1.0
a(lp172
F1918.0643
aa(lp173
F3529.12
aa(lp174
F183.784812
aa(lp175
F129.31587546778624
aaa(lp176
F300.0
aF1100.0
aF1.0
a(lp177
F2995.2601
aa(lp178
F3529.12
aa(lp179
F183.784812
aa(lp180
F161.96514427493344
aaa(lp181
F300.0
aF1900.0
aF1.0
a(lp182
F2648.64228
aa(lp183
F3529.12
aa(lp184
F183.784812
aa(lp185
F152.1605324648938
aaa(lp186
F300.0
aF1500.0
aF1.0
a(lp187
F2755.8098600000003
aa(lp188
F3529.12
aa(lp189
F183.784812
aa(lp190
F155.27231691450993
aaa(lp191
F300.0
aF1700.0
aF1.0
a(lp192
F2587.80176
aa(lp193
F3529.12
aa(lp194
F183.784812
aa(lp195
F149.90735885872982
aaa(lp196
F300.0
aF1800.0
aF1.0
a(lp197
F2796.3639200000002
aa(lp198
F3529.12
aa(lp199
F183.784812
aa(lp200
F156.07780341867962
aaa(lp201
F400.0
aF900.0
aF1.0
a(lp202
F1867.7752600000001
aa(lp203
F3529.12
aa(lp204
F183.784812
aa(lp205
F85.6993950503736
aaa(lp206
F400.0
aF1200.0
aF1.0
a(lp207
F1921.32754
aa(lp208
F3529.12
aa(lp209
F183.784812
aa(lp210
F86.88544002305564
aaa(lp211
F400.0
aF1500.0
aF1.0
a(lp212
F1845.88478
aa(lp213
F3529.12
aa(lp214
F183.784812
aa(lp215
F85.14431008587714
aaa(lp216
F400.0
aF200.0
aF1.0
a(lp217
F1928.0260600000001
aa(lp218
F3529.12
aa(lp219
F183.784812
aa(lp220
F86.83391623092903
aaa(lp221
F400.0
aF1600.0
aF1.0
a(lp222
F2038.1776599999998
aa(lp223
F3529.12
aa(lp224
F183.784812
aa(lp225
F89.38000049228015
aaa(lp226
F400.0
aF500.0
aF1.0
a(lp227
F2045.41024
aa(lp228
F3529.12
aa(lp229
F183.784812
aa(lp230
F89.52517116431557
aaa(lp231
F400.0
aF1700.0
aF1.0
a(lp232
F2046.05792
aa(lp233
F3529.12
aa(lp234
F183.784812
aa(lp235
F89.38243890160976
aaa(lp236
F400.0
aF300.0
aF1.0
a(lp237
F1770.1448599999999
aa(lp238
F3529.12
aa(lp239
F183.784812
aa(lp240
F83.07701881988784
aaa(lp241
F400.0
aF1300.0
aF1.0
a(lp242
F1895.19264
aa(lp243
F3529.12
aa(lp244
F183.784812
aa(lp245
F86.23426043052727
aaa(lp246
F400.0
aF1400.0
aF1.0
a(lp247
F1876.45684
aa(lp248
F3529.12
aa(lp249
F183.784812
aa(lp250
F86.00725681010876
aaa(lp251
F400.0
aF1100.0
aF1.0
a(lp252
F1969.4117999999999
aa(lp253
F3529.12
aa(lp254
F183.784812
aa(lp255
F87.89916352275486
aaa(lp256
F400.0
aF800.0
aF1.0
a(lp257
F1936.6933800000002
aa(lp258
F3529.12
aa(lp259
F183.784812
aa(lp260
F87.13594849429252
aaa(lp261
F400.0
aF100.0
aF1.0
a(lp262
F1307.55322
aa(lp263
F3529.12
aa(lp264
F183.784812
aa(lp265
F71.76129742416869
aaa(lp266
F400.0
aF1000.0
aF1.0
a(lp267
F2052.6216600000002
aa(lp268
F3529.12
aa(lp269
F183.784812
aa(lp270
F89.75488833484225
aaa(lp271
F400.0
aF400.0
aF1.0
a(lp272
F1908.1784400000001
aa(lp273
F3529.12
aa(lp274
F183.784812
aa(lp275
F86.46783850658
aaa(lp276
F400.0
aF1800.0
aF1.0
a(lp277
F2054.50398
aa(lp278
F3529.12
aa(lp279
F183.784812
aa(lp280
F89.75142269624476
aaa(lp281
F400.0
aF2000.0
aF1.0
a(lp282
F1970.35848
aa(lp283
F3529.12
aa(lp284
F183.784812
aa(lp285
F88.02913406367234
aaa(lp286
F400.0
aF600.0
aF1.0
a(lp287
F1861.7672
aa(lp288
F3529.12
aa(lp289
F183.784812
aa(lp290
F85.51378967160794
aaa(lp291
F400.0
aF700.0
aF1.0
a(lp292
F1778.6015
aa(lp293
F3529.12
aa(lp294
F183.784812
aa(lp295
F83.5659858076239
aaa(lp296
F400.0
aF1900.0
aF1.0
a(lp297
F1794.0529000000001
aa(lp298
F3529.12
aa(lp299
F183.784812
aa(lp300
F83.73921922253633
aaa(lp301
F500.0
aF1700.0
aF1.0
a(lp302
F1029.44826
aa(lp303
F3529.12
aa(lp304
F183.784812
aa(lp305
F45.58474206135207
aaa(lp306
F500.0
aF1100.0
aF1.0
a(lp307
F1043.7147
aa(lp308
F3529.12
aa(lp309
F183.784812
aa(lp310
F45.63844974580097
aaa(lp311
F500.0
aF300.0
aF1.0
a(lp312
F1064.49382
aa(lp313
F3529.12
aa(lp314
F183.784812
aa(lp315
F46.15166497538306
aaa(lp316
F500.0
aF1300.0
aF1.0
a(lp317
F1074.86544
aa(lp318
F3529.12
aa(lp319
F183.784812
aa(lp320
F46.383878233713915
aaa(lp321
F500.0
aF1800.0
aF1.0
a(lp322
F1091.00684
aa(lp323
F3529.12
aa(lp324
F183.784812
aa(lp325
F46.77654933831695
aaa(lp326
F500.0
aF1400.0
aF1.0
a(lp327
F1109.41788
aa(lp328
F3529.12
aa(lp329
F183.784812
aa(lp330
F47.26280067875792
aaa(lp331
F500.0
aF600.0
aF1.0
a(lp332
F1120.0034
aa(lp333
F3529.12
aa(lp334
F183.784812
aa(lp335
F47.41352794298268
aaa(lp336
F500.0
aF1900.0
aF1.0
a(lp337
F1031.2050000000002
aa(lp338
F3529.12
aa(lp339
F183.784812
aa(lp340
F45.52880761452028
aaa(lp341
F500.0
aF1200.0
aF1.0
a(lp342
F1058.7107
aa(lp343
F3529.12
aa(lp344
F183.784812
aa(lp345
F45.94414048385278
aaa(lp346
F500.0
aF800.0
aF1.0
a(lp347
F1106.3621
aa(lp348
F3529.12
aa(lp349
F183.784812
aa(lp350
F47.00482039110457
aaa(lp351
F500.0
aF1000.0
aF1.0
a(lp352
F1024.10214
aa(lp353
F3529.12
aa(lp354
F183.784812
aa(lp355
F45.25935067585482
aaa(lp356
F500.0
aF2000.0
aF1.0
a(lp357
F1106.40258
aa(lp358
F3529.12
aa(lp359
F183.784812
aa(lp360
F47.091622397195025
aaa(lp361
F500.0
aF700.0
aF1.0
a(lp362
F808.81018
aa(lp363
F1702.9199999999998
aa(lp364
F127.16401
aa(lp365
F40.09123923751922
aaa(lp366
F500.0
aF100.0
aF0.99984
a(lp367
F526.4171
aa(lp368
F1702.9199999999998
aa(lp369
F127.16401
aa(lp370
F32.337528872812776
aaa(lp371
F500.0
aF200.0
aF0.999999
a(lp372
F690.56534
aa(lp373
F1702.9199999999998
aa(lp374
F127.16401
aa(lp375
F37.1788038753266
aaa(lp376
F500.0
aF1500.0
aF1.0
a(lp377
F1084.18964
aa(lp378
F3529.12
aa(lp379
F183.784812
aa(lp380
F46.69935768294892
aaa(lp381
F500.0
aF900.0
aF1.0
a(lp382
F840.12192
aa(lp383
F1702.9199999999998
aa(lp384
F127.16401
aa(lp385
F40.99374853803931
aaa(lp386
F500.0
aF1600.0
aF1.0
a(lp387
F1112.95068
aa(lp388
F3529.12
aa(lp389
F183.784812
aa(lp390
F47.19960902380443
aaa(lp391
F500.0
aF500.0
aF1.0
a(lp392
F1103.2709
aa(lp393
F3529.12
aa(lp394
F183.784812
aa(lp395
F47.258927833796655
aaa(lp396
F500.0
aF400.0
aF1.0
a(lp397
F1113.7487800000001
aa(lp398
F3529.12
aa(lp399
F183.784812
aa(lp400
F47.23346661002133
aaa(lp401
F600.0
aF200.0
aF0.996251
a(lp402
F396.451828
aa(lp403
F1702.9199999999998
aa(lp404
F127.16401
aa(lp405
F20.923923073840623
aaa(lp406
F600.0
aF1400.0
aF0.999886
a(lp407
F531.88926
aa(lp408
F1702.9199999999998
aa(lp409
F127.16401
aa(lp410
F24.226890357617094
aaa(lp411
F600.0
aF1900.0
aF0.99985
a(lp412
F131.626056
aa(lp413
F179.538
aa(lp414
F27.3840668
aa(lp415
F12.015759137066622
aaa(lp416
F600.0
aF100.0
aF0.972267
a(lp417
F299.42458000000005
aa(lp418
F1702.9199999999998
aa(lp419
F127.16401
aa(lp420
F18.256240401572278
aaa(lp421
F600.0
aF800.0
aF0.999872
a(lp422
F527.70832
aa(lp423
F1702.9199999999998
aa(lp424
F127.16401
aa(lp425
F24.264047279874806
aaa(lp426
F600.0
aF1200.0
aF0.999925
a(lp427
F138.384514
aa(lp428
F179.538
aa(lp429
F27.3840668
aa(lp430
F12.377487984239774
aaa(lp431
F600.0
aF600.0
aF0.999571
a(lp432
F286.281138
aa(lp433
F630.66
aa(lp434
F73.304726
aa(lp435
F17.823085703659732
aaa(lp436
F600.0
aF1600.0
aF0.999713
a(lp437
F498.92474
aa(lp438
F1702.9199999999998
aa(lp439
F127.16401
aa(lp440
F23.49344792064375
aaa(lp441
F600.0
aF400.0
aF0.999829
a(lp442
F517.5506
aa(lp443
F1702.9199999999998
aa(lp444
F127.16401
aa(lp445
F23.975074673502064
aaa(lp446
F600.0
aF500.0
aF0.999682
a(lp447
F495.18494000000004
aa(lp448
F1702.9199999999998
aa(lp449
F127.16401
aa(lp450
F23.36922240897202
aaa(lp451
F600.0
aF1100.0
aF0.999967
a(lp452
F145.99719199999998
aa(lp453
F179.538
aa(lp454
F27.3840668
aa(lp455
F12.707425692090432
aaa(lp456
F600.0
aF300.0
aF0.999962
a(lp457
F144.67023
aa(lp458
F179.538
aa(lp459
F27.3840668
aa(lp460
F12.639899385675504
aaa(lp461
F600.0
aF1700.0
aF0.999846
a(lp462
F521.2191
aa(lp463
F1702.9199999999998
aa(lp464
F127.16401
aa(lp465
F23.965682147604312
aaa(lp466
F600.0
aF1500.0
aF0.999981
a(lp467
F150.93239400000002
aa(lp468
F179.538
aa(lp469
F27.3840668
aa(lp470
F12.895025842548746
aaa(lp471
F600.0
aF1800.0
aF0.999817
a(lp472
F129.790012
aa(lp473
F179.538
aa(lp474
F27.3840668
aa(lp475
F11.99909184396886
aaa(lp476
F600.0
aF1000.0
aF0.999684
a(lp477
F62.139606
aa(lp478
F47.978
aa(lp479
F10.8899618
aa(lp480
F8.303751766520962
aaa(lp481
F600.0
aF2000.0
aF0.999833
a(lp482
F518.5184399999999
aa(lp483
F1702.9199999999998
aa(lp484
F127.16401
aa(lp485
F23.96851618269266
aaa(lp486
F600.0
aF700.0
aF0.999853
a(lp487
F131.981314
aa(lp488
F179.538
aa(lp489
F27.3840668
aa(lp490
F12.149862713627673
aaa(lp491
F600.0
aF1300.0
aF0.999739
a(lp492
F502.41614
aa(lp493
F1702.9199999999998
aa(lp494
F127.16401
aa(lp495
F23.579565899312055
aaa(lp496
F600.0
aF900.0
aF0.99991
a(lp497
F540.01102
aa(lp498
F1702.9199999999998
aa(lp499
F127.16401
aa(lp500
F24.495403846436172
aaa(lp501
F700.0
aF2000.0
aF0.997012
a(lp502
F98.052036
aa(lp503
F179.538
aa(lp504
F27.3840668
aa(lp505
F7.953072752087711
aaa(lp506
F700.0
aF100.0
aF0.895488
a(lp507
F23.2312006
aa(lp508
F47.978
aa(lp509
F10.8899618
aa(lp510
F3.871866753905666
aaa(lp511
F700.0
aF1000.0
aF0.996163
a(lp512
F95.281134
aa(lp513
F179.538
aa(lp514
F27.3840668
aa(lp515
F7.8320629900429175
aaa(lp516
F700.0
aF600.0
aF0.997338
a(lp517
F99.31533400000001
aa(lp518
F179.538
aa(lp519
F27.3840668
aa(lp520
F8.003056151246223
aaa(lp521
F700.0
aF1400.0
aF0.993253
a(lp522
F41.5350146
aa(lp523
F47.978
aa(lp524
F10.8899618
aa(lp525
F5.191875949981855
aaa(lp526
F700.0
aF1900.0
aF0.992839
a(lp527
F88.143636
aa(lp528
F179.538
aa(lp529
F27.3840668
aa(lp530
F7.530618681091216
aaa(lp531
F700.0
aF200.0
aF0.950199
a(lp532
F63.049991999999996
aa(lp533
F179.538
aa(lp534
F27.3840668
aa(lp535
F6.3690102307972465
aaa(lp536
F700.0
aF400.0
aF0.997573
a(lp537
F100.30392
aa(lp538
F179.538
aa(lp539
F27.3840668
aa(lp540
F8.030742394075407
aaa(lp541
F700.0
aF1300.0
aF0.998386
a(lp542
F104.64493999999999
aa(lp543
F179.538
aa(lp544
F27.3840668
aa(lp545
F8.196425552641834
aaa(lp546
F700.0
aF1100.0
aF0.993449
a(lp547
F41.6761748
aa(lp548
F47.978
aa(lp549
F10.8899618
aa(lp550
F5.169292852992563
aaa(lp551
F700.0
aF800.0
aF0.997996
a(lp552
F102.365594
aa(lp553
F179.538
aa(lp554
F27.3840668
aa(lp555
F8.118121652205023
aaa(lp556
F700.0
aF1500.0
aF0.996155
a(lp557
F95.258042
aa(lp558
F179.538
aa(lp559
F27.3840668
aa(lp560
F7.830163454232612
aaa(lp561
F700.0
aF1600.0
aF0.991927
a(lp562
F211.112584
aa(lp563
F630.66
aa(lp564
F73.304726
aa(lp565
F11.656742181244296
aaa(lp566
F700.0
aF1800.0
aF0.995421
a(lp567
F93.294808
aa(lp568
F179.538
aa(lp569
F27.3840668
aa(lp570
F7.747711052949768
aaa(lp571
F700.0
aF1200.0
aF0.993092
a(lp572
F88.559476
aa(lp573
F179.538
aa(lp574
F27.3840668
aa(lp575
F7.538682882307757
aaa(lp576
F700.0
aF700.0
aF0.99663
a(lp577
F96.748166
aa(lp578
F179.538
aa(lp579
F27.3840668
aa(lp580
F7.925917468659386
aaa(lp581
F700.0
aF900.0
aF0.996749
a(lp582
F97.119202
aa(lp583
F179.538
aa(lp584
F27.3840668
aa(lp585
F7.90344659752946
aaa(lp586
F700.0
aF300.0
aF0.974401
a(lp587
F302.55658200000005
aa(lp588
F1702.9199999999998
aa(lp589
F127.16401
aa(lp590
F13.955894354716218
aaa(lp591
F700.0
aF500.0
aF0.997691
a(lp592
F100.861164
aa(lp593
F179.538
aa(lp594
F27.3840668
aa(lp595
F8.0753586298071
aaa(lp596
F700.0
aF1700.0
aF0.997934
a(lp597
F102.049114
aa(lp598
F179.538
aa(lp599
F27.3840668
aa(lp600
F8.118592114400132
aaa(lp601
F800.0
aF300.0
aF0.905552
a(lp602
F52.961134
aa(lp603
F179.538
aa(lp604
F27.3840668
aa(lp605
F4.524777554753383
aaa(lp606
F800.0
aF100.0
aF0.795293
a(lp607
F17.5238242
aa(lp608
F47.978
aa(lp609
F10.8899618
aa(lp610
F2.6122978390681255
aaa(lp611
F800.0
aF1800.0
aF0.967927
a(lp612
F31.0359976
aa(lp613
F47.978
aa(lp614
F10.8899618
aa(lp615
F3.469930047133515
aaa(lp616
F800.0
aF800.0
aF0.973039
a(lp617
F70.924134
aa(lp618
F179.538
aa(lp619
F27.3840668
aa(lp620
F5.257246602547764
aaa(lp621
F800.0
aF400.0
aF0.973174
a(lp622
F70.991202
aa(lp623
F179.538
aa(lp624
F27.3840668
aa(lp625
F5.26221905283313
aaa(lp626
F800.0
aF200.0
aF0.866008
a(lp627
F20.9618734
aa(lp628
F47.978
aa(lp629
F10.8899618
aa(lp630
F2.8525497212143387
aaa(lp631
F800.0
aF1700.0
aF0.97366
a(lp632
F71.23445
aa(lp633
F179.538
aa(lp634
F27.3840668
aa(lp635
F5.280251016760473
aaa(lp636
F800.0
aF600.0
aF0.97195
a(lp637
F31.8978536
aa(lp638
F47.978
aa(lp639
F10.8899618
aa(lp640
F3.522528505491474
aaa(lp641
F800.0
aF1600.0
aF0.969819
a(lp642
F31.4272046
aa(lp643
F47.978
aa(lp644
F10.8899618
aa(lp645
F3.491911780672588
aaa(lp646
F800.0
aF1000.0
aF0.939893
a(lp647
F59.82566799999999
aa(lp648
F179.538
aa(lp649
F27.3840668
aa(lp650
F4.836617276568408
aaa(lp651
F800.0
aF1100.0
aF0.961692
a(lp652
F66.20559200000001
aa(lp653
F179.538
aa(lp654
F27.3840668
aa(lp655
F5.077737456781318
aaa(lp656
F800.0
aF1500.0
aF0.967593
a(lp657
F68.477486
aa(lp658
F179.538
aa(lp659
F27.3840668
aa(lp660
F5.161683756295033
aaa(lp661
F800.0
aF1400.0
aF0.965435
a(lp662
F67.606384
aa(lp663
F179.538
aa(lp664
F27.3840668
aa(lp665
F5.12522578624591
aaa(lp666
F800.0
aF1200.0
aF0.951423
a(lp667
F62.88867
aa(lp668
F179.538
aa(lp669
F27.3840668
aa(lp670
F4.941001732442521
aaa(lp671
F800.0
aF900.0
aF0.975948
a(lp672
F72.413798
aa(lp673
F179.538
aa(lp674
F27.3840668
aa(lp675
F5.309637550718504
aaa(lp676
F800.0
aF1300.0
aF0.967238
a(lp677
F30.907169999999997
aa(lp678
F47.978
aa(lp679
F10.8899618
aa(lp680
F3.4773286137493535
aaa(lp681
F800.0
aF2000.0
aF0.976756
a(lp682
F33.0843822
aa(lp683
F47.978
aa(lp684
F10.8899618
aa(lp685
F3.588505079834777
aaa(lp686
F800.0
aF500.0
aF0.959255
a(lp687
F29.4718136
aa(lp688
F47.978
aa(lp689
F10.8899618
aa(lp690
F3.3806488797270857
aaa(lp691
F800.0
aF1900.0
aF0.98683
a(lp692
F79.966354
aa(lp693
F179.538
aa(lp694
F27.3840668
aa(lp695
F5.571519164464931
aaa(lp696
F800.0
aF700.0
aF0.97893
a(lp697
F74.11929400000001
aa(lp698
F179.538
aa(lp699
F27.3840668
aa(lp700
F5.377177668628776
aaa(lp701
F900.0
aF200.0
aF0.74816
a(lp702
F15.625831999999999
aa(lp703
F47.978
aa(lp704
F10.8899618
aa(lp705
F1.9381460099796401
aaa(lp706
F900.0
aF1100.0
aF0.881969
a(lp707
F21.747314199999998
aa(lp708
F47.978
aa(lp709
F10.8899618
aa(lp710
F2.2923678971753203
aaa(lp711
F900.0
aF300.0
aF0.776005
a(lp712
F16.6379102
aa(lp713
F47.978
aa(lp714
F10.8899618
aa(lp715
F2.0029691001111325
aaa(lp716
F900.0
aF1000.0
aF0.889173
a(lp717
F22.217323800000003
aa(lp718
F47.978
aa(lp719
F10.8899618
aa(lp720
F2.3163162858297226
aaa(lp721
F900.0
aF900.0
aF0.887718
a(lp722
F22.1189022
aa(lp723
F47.978
aa(lp724
F10.8899618
aa(lp725
F2.3060552890162893
aaa(lp726
F900.0
aF1600.0
aF0.903334
a(lp727
F23.2221754
aa(lp728
F47.978
aa(lp729
F10.8899618
aa(lp730
F2.3701037428770917
aaa(lp731
F900.0
aF700.0
aF0.896037
a(lp732
F22.689596599999998
aa(lp733
F47.978
aa(lp734
F10.8899618
aa(lp735
F2.3402528820621074
aaa(lp736
F900.0
aF1900.0
aF0.87618
a(lp737
F48.409112
aa(lp738
F179.538
aa(lp739
F27.3840668
aa(lp740
F3.414516511601606
aaa(lp741
F900.0
aF500.0
aF0.888803
a(lp742
F22.1921894
aa(lp743
F47.978
aa(lp744
F10.8899618
aa(lp745
F2.313696200455021
aaa(lp746
F900.0
aF1400.0
aF0.845403
a(lp747
F44.6742938
aa(lp748
F179.538
aa(lp749
F27.3840668
aa(lp750
F3.2934326354124814
aaa(lp751
F900.0
aF1200.0
aF0.917157
a(lp752
F24.328875599999996
aa(lp753
F47.978
aa(lp754
F10.8899618
aa(lp755
F2.4208135359833065
aaa(lp756
F900.0
aF1500.0
aF0.945594
a(lp757
F27.2280026
aa(lp758
F47.978
aa(lp759
F10.8899618
aa(lp760
F2.561395080029631
aaa(lp761
F900.0
aF800.0
aF0.879849
a(lp762
F21.6150596
aa(lp763
F47.978
aa(lp764
F10.8899618
aa(lp765
F2.2911916131131416
aaa(lp766
F900.0
aF400.0
aF0.892531
a(lp767
F22.4450928
aa(lp768
F47.978
aa(lp769
F10.8899618
aa(lp770
F2.3274477222915233
aaa(lp771
F900.0
aF100.0
aF0.584791
a(lp772
F10.936113599999999
aa(lp773
F47.978
aa(lp774
F10.8899618
aa(lp775
F1.6302590800237857
aaa(lp776
F900.0
aF600.0
aF0.901204
a(lp777
F23.0610788
aa(lp778
F47.978
aa(lp779
F10.8899618
aa(lp780
F2.3536618219276955
aaa(lp781
F900.0
aF1800.0
aF0.844352
a(lp782
F19.6198464
aa(lp783
F47.978
aa(lp784
F10.8899618
aa(lp785
F2.1799826604815
aaa(lp786
F900.0
aF2000.0
aF0.921275
a(lp787
F55.555856000000006
aa(lp788
F179.538
aa(lp789
F27.3840668
aa(lp790
F3.679275428667987
aaa(lp791
F900.0
aF1700.0
aF0.874688
a(lp792
F21.2961048
aa(lp793
F47.978
aa(lp794
F10.8899618
aa(lp795
F2.270172004937071
aaa(lp796
F900.0
aF1300.0
aF0.866334
a(lp797
F47.140156
aa(lp798
F179.538
aa(lp799
F27.3840668
aa(lp800
F3.367153811158617
aaa(lp801
F1000.0
aF1600.0
aF0.712689
a(lp802
F33.098605400000004
aa(lp803
F179.538
aa(lp804
F27.3840668
aa(lp805
F2.257306289363497
aaa(lp806
F1000.0
aF1400.0
aF0.761677
a(lp807
F36.7595016
aa(lp808
F179.538
aa(lp809
F27.3840668
aa(lp810
F2.3678877000398475
aaa(lp811
F1000.0
aF1500.0
aF0.776591
a(lp812
F16.5917124
aa(lp813
F47.978
aa(lp814
F10.8899618
aa(lp815
F1.5965380045586137
aaa(lp816
F1000.0
aF700.0
aF0.697061
a(lp817
F32.0239304
aa(lp818
F179.538
aa(lp819
F27.3840668
aa(lp820
F2.2204600721472114
aaa(lp821
F1000.0
aF1900.0
aF0.743823
a(lp822
F35.367445
aa(lp823
F179.538
aa(lp824
F27.3840668
aa(lp825
F2.3219864125356118
aaa(lp826
F1000.0
aF1800.0
aF0.756929
a(lp827
F15.871729599999998
aa(lp828
F47.978
aa(lp829
F10.8899618
aa(lp830
F1.5563513857737912
aaa(lp831
F1000.0
aF500.0
aF0.820478
a(lp832
F18.392998799999997
aa(lp833
F47.978
aa(lp834
F10.8899618
aa(lp835
F1.6790434788890967
aaa(lp836
F1000.0
aF1000.0
aF0.79524
a(lp837
F17.31992
aa(lp838
F47.978
aa(lp839
F10.8899618
aa(lp840
F1.6293210389607076
aaa(lp841
F1000.0
aF200.0
aF0.484598
a(lp842
F20.0753752
aa(lp843
F179.538
aa(lp844
F27.3840668
aa(lp845
F1.7539939338549606
aaa(lp846
F1000.0
aF1100.0
aF0.662218
a(lp847
F6.5500688
aa(lp848
F12.3188
aa(lp849
F5.1794528
aa(lp850
F0.9988757804652189
aaa(lp851
F1000.0
aF2000.0
aF0.672066
a(lp852
F30.3814912
aa(lp853
F179.538
aa(lp854
F27.3840668
aa(lp855
F2.1591186757563836
aaa(lp856
F1000.0
aF1700.0
aF0.728432
a(lp857
F34.2226246
aa(lp858
F179.538
aa(lp859
F27.3840668
aa(lp860
F2.28659517711378
aaa(lp861
F1000.0
aF800.0
aF0.764483
a(lp862
F16.1434516
aa(lp863
F47.978
aa(lp864
F10.8899618
aa(lp865
F1.5754392251051768
aaa(lp866
F1000.0
aF1300.0
aF0.781281
a(lp867
F16.7705558
aa(lp868
F47.978
aa(lp869
F10.8899618
aa(lp870
F1.6063276403025628
aaa(lp871
F1000.0
aF400.0
aF0.720031
a(lp872
F14.6334464
aa(lp873
F47.978
aa(lp874
F10.8899618
aa(lp875
F1.5013599488463782
aaa(lp876
F1000.0
aF300.0
aF0.489306
a(lp877
F8.742290800000001
aa(lp878
F47.978
aa(lp879
F10.8899618
aa(lp880
F1.157944633736864
aaa(lp881
F1000.0
aF600.0
aF0.745173
a(lp882
F15.4628724
aa(lp883
F47.978
aa(lp884
F10.8899618
aa(lp885
F1.5386137046055453
aaa(lp886
F1000.0
aF1200.0
aF0.730424
a(lp887
F14.968786399999999
aa(lp888
F47.978
aa(lp889
F10.8899618
aa(lp890
F1.5120760470293815
aaa(lp891
F1000.0
aF100.0
aF0.432848
a(lp892
F17.6357882
aa(lp893
F179.538
aa(lp894
F27.3840668
aa(lp895
F1.6445459993566613
aaa(lp896
F1000.0
aF900.0
aF0.706078
a(lp897
F14.1954804
aa(lp898
F47.978
aa(lp899
F10.8899618
aa(lp900
F1.4720028749971925
aaa(lp901
F1100.0
aF1300.0
aF0.556997
a(lp902
F10.2292086
aa(lp903
F47.978
aa(lp904
F10.8899618
aa(lp905
F1.0030563433825639
aaa(lp906
F1100.0
aF1800.0
aF0.526184
a(lp907
F22.1205582
aa(lp908
F179.538
aa(lp909
F27.3840668
aa(lp910
F1.474704328331615
aaa(lp911
F1100.0
aF2000.0
aF0.570834
a(lp912
F10.5530072
aa(lp913
F47.978
aa(lp914
F10.8899618
aa(lp915
F1.020197764945601
aaa(lp916
F1100.0
aF700.0
aF0.479906
a(lp917
F4.25802542
aa(lp918
F12.3188
aa(lp919
F5.1794528
aa(lp920
F0.6493429149532626
aaa(lp921
F1100.0
aF900.0
aF0.589508
a(lp922
F11.000927599999999
aa(lp923
F47.978
aa(lp924
F10.8899618
aa(lp925
F1.0441618010634177
aaa(lp926
F1100.0
aF200.0
aF0.397607
a(lp927
F6.874309
aa(lp928
F47.978
aa(lp929
F10.8899618
aa(lp930
F0.8216371352367176
aaa(lp931
F1100.0
aF1900.0
aF0.57575
a(lp932
F10.669690800000001
aa(lp933
F47.978
aa(lp934
F10.8899618
aa(lp935
F1.0266914556964035
aaa(lp936
F1100.0
aF1500.0
aF0.590806
a(lp937
F11.0323088
aa(lp938
F47.978
aa(lp939
F10.8899618
aa(lp940
F1.0424550000839365
aaa(lp941
F1100.0
aF800.0
aF0.572777
a(lp942
F10.599149800000001
aa(lp943
F47.978
aa(lp944
F10.8899618
aa(lp945
F1.0246585442965865
aaa(lp946
F1100.0
aF500.0
aF0.478817
a(lp947
F4.24623194
aa(lp948
F12.3188
aa(lp949
F5.1794528
aa(lp950
F0.6475442400330652
aaa(lp951
F1100.0
aF1700.0
aF0.535636
a(lp952
F9.7417696
aa(lp953
F47.978
aa(lp954
F10.8899618
aa(lp955
F0.9790847953063105
aaa(lp956
F1100.0
aF400.0
aF0.462501
a(lp957
F8.169485
aa(lp958
F47.978
aa(lp959
F10.8899618
aa(lp960
F0.8967175863113203
aaa(lp961
F1100.0
aF600.0
aF0.530577
a(lp962
F4.822709
aa(lp963
F12.3188
aa(lp964
F5.1794528
aa(lp965
F0.6889586942625806
aaa(lp966
F1100.0
aF1400.0
aF0.542687
a(lp967
F9.90127
aa(lp968
F47.978
aa(lp969
F10.8899618
aa(lp970
F0.990127106587836
aaa(lp971
F1100.0
aF100.0
aF0.328855
a(lp972
F13.0433552
aa(lp973
F179.538
aa(lp974
F27.3840668
aa(lp975
F1.1396030010490497
aaa(lp976
F1100.0
aF1100.0
aF0.540323
a(lp977
F22.843443599999997
aa(lp978
F179.538
aa(lp979
F27.3840668
aa(lp980
F1.5029883193158886
aaa(lp981
F1100.0
aF1000.0
aF0.562415
a(lp982
F23.999221199999997
aa(lp983
F179.538
aa(lp984
F27.3840668
aa(lp985
F1.5363924251310277
aaa(lp986
F1100.0
aF300.0
aF0.449817
a(lp987
F7.909884000000001
aa(lp988
F47.978
aa(lp989
F10.8899618
aa(lp990
F0.8843521235345115
aaa(lp991
F1100.0
aF1200.0
aF0.576978
a(lp992
F10.6987536
aa(lp993
F47.978
aa(lp994
F10.8899618
aa(lp995
F1.0247548756653955
aaa(lp996
F1100.0
aF1600.0
aF0.577367
a(lp997
F10.708367599999999
aa(lp998
F47.978
aa(lp999
F10.8899618
aa(lp1000
F1.0304133481278277
aaa(lp1001
F1200.0
aF100.0
aF0.263658
a(lp1002
F4.40624616
aa(lp1003
F47.978
aa(lp1004
F10.8899618
aa(lp1005
F0.5304496138183155
aaa(lp1006
F1200.0
aF1400.0
aF0.462089
a(lp1007
F8.1542452
aa(lp1008
F47.978
aa(lp1009
F10.8899618
aa(lp1010
F0.7207401487360059
aaa(lp1011
F1200.0
aF1700.0
aF0.422647
a(lp1012
F7.359218
aa(lp1013
F47.978
aa(lp1014
F10.8899618
aa(lp1015
F0.6892537831597298
aaa(lp1016
F1200.0
aF1800.0
aF0.436516
a(lp1017
F3.7962456799999997
aa(lp1018
F12.3188
aa(lp1019
F5.1794528
aa(lp1020
F0.494229060659124
aaa(lp1021
F1200.0
aF700.0
aF0.395626
a(lp1022
F6.831271399999999
aa(lp1023
F47.978
aa(lp1024
F10.8899618
aa(lp1025
F0.6604038185837511
aaa(lp1026
F1200.0
aF200.0
aF0.241036
a(lp1027
F4.010582680000001
aa(lp1028
F47.978
aa(lp1029
F10.8899618
aa(lp1030
F0.5093444382733554
aaa(lp1031
F1200.0
aF1900.0
aF0.431381
a(lp1032
F7.5326242
aa(lp1033
F47.978
aa(lp1034
F10.8899618
aa(lp1035
F0.6963913853574009
aaa(lp1036
F1200.0
aF1200.0
aF0.409139
a(lp1037
F7.093729
aa(lp1038
F47.978
aa(lp1039
F10.8899618
aa(lp1040
F0.6763605115616966
aaa(lp1041
F1200.0
aF1100.0
aF0.450728
a(lp1042
F7.9219912
aa(lp1043
F47.978
aa(lp1044
F10.8899618
aa(lp1045
F0.7114158401385227
aaa(lp1046
F1200.0
aF1300.0
aF0.422482
a(lp1047
F7.355952
aa(lp1048
F47.978
aa(lp1049
F10.8899618
aa(lp1050
F0.6889480981902772
aaa(lp1051
F1200.0
aF2000.0
aF0.449424
a(lp1052
F3.92899754
aa(lp1053
F12.3188
aa(lp1054
F5.1794528
aa(lp1055
F0.5030566393558483
aaa(lp1056
F1200.0
aF800.0
aF0.412684
a(lp1057
F7.163005
aa(lp1058
F47.978
aa(lp1059
F10.8899618
aa(lp1060
F0.6768405673421178
aaa(lp1061
F1200.0
aF1600.0
aF0.363332
a(lp1062
F6.2162698
aa(lp1063
F47.978
aa(lp1064
F10.8899618
aa(lp1065
F0.6311662665257071
aaa(lp1066
F1200.0
aF1000.0
aF0.422461
a(lp1067
F7.3554552
aa(lp1068
F47.978
aa(lp1069
F10.8899618
aa(lp1070
F0.6858997976381098
aaa(lp1071
F1200.0
aF1500.0
aF0.415932
a(lp1072
F3.58837168
aa(lp1073
F12.3188
aa(lp1074
F5.1794528
aa(lp1075
F0.4795164088954621
aaa(lp1076
F1200.0
aF300.0
aF0.260419
a(lp1077
F4.34930966
aa(lp1078
F47.978
aa(lp1079
F10.8899618
aa(lp1080
F0.5274312740063866
aaa(lp1081
F1200.0
aF600.0
aF0.411936
a(lp1082
F7.148423
aa(lp1083
F47.978
aa(lp1084
F10.8899618
aa(lp1085
F0.6784982847435946
aaa(lp1086
F1200.0
aF500.0
aF0.414962
a(lp1087
F7.2076664
aa(lp1088
F47.978
aa(lp1089
F10.8899618
aa(lp1090
F0.6780401560379739
aaa(lp1091
F1200.0
aF900.0
aF0.453331
a(lp1092
F7.9750613999999995
aa(lp1093
F47.978
aa(lp1094
F10.8899618
aa(lp1095
F0.7161815917768342
aaa(lp1096
F1200.0
aF400.0
aF0.297476
a(lp1097
F11.7211588
aa(lp1098
F179.538
aa(lp1099
F27.3840668
aa(lp1100
F0.868830045981376
aaa(lp1101
F1300.0
aF1600.0
aF0.308805
a(lp1102
F2.5689242799999996
aa(lp1103
F12.3188
aa(lp1104
F5.1794528
aa(lp1105
F0.3289170485091948
aaa(lp1106
F1300.0
aF1700.0
aF0.282626
a(lp1107
F4.7404150000000005
aa(lp1108
F47.978
aa(lp1109
F10.8899618
aa(lp1110
F0.44594083091818354
aaa(lp1111
F1300.0
aF900.0
aF0.337562
a(lp1112
F5.734337
aa(lp1113
F47.978
aa(lp1114
F10.8899618
aa(lp1115
F0.4899174926454454
aaa(lp1116
F1300.0
aF200.0
aF0.181909
a(lp1117
F2.9961350199999996
aa(lp1118
F47.978
aa(lp1119
F10.8899618
aa(lp1120
F0.35557577487787323
aaa(lp1121
F1300.0
aF1800.0
aF0.294681
a(lp1122
F4.9555708
aa(lp1123
F47.978
aa(lp1124
F10.8899618
aa(lp1125
F0.45814277276848975
aaa(lp1126
F1300.0
aF1000.0
aF0.2758
a(lp1127
F2.2734902
aa(lp1128
F12.3188
aa(lp1129
F5.1794528
aa(lp1130
F0.30938281387303984
aaa(lp1131
F1300.0
aF1400.0
aF0.315119
a(lp1132
F2.6263009999999998
aa(lp1133
F12.3188
aa(lp1134
F5.1794528
aa(lp1135
F0.3335405409841508
aaa(lp1136
F1300.0
aF1200.0
aF0.29237
a(lp1137
F4.9141753999999995
aa(lp1138
F47.978
aa(lp1139
F10.8899618
aa(lp1140
F0.45431580434759256
aaa(lp1141
F1300.0
aF500.0
aF0.233015
a(lp1142
F1.9002967999999998
aa(lp1143
F12.3188
aa(lp1144
F5.1794528
aa(lp1145
F0.28327948856209123
aaa(lp1146
F1300.0
aF100.0
aF0.159706
a(lp1147
F6.164772800000001
aa(lp1148
F179.538
aa(lp1149
F27.3840668
aa(lp1150
F0.510200348098666
aaa(lp1151
F1300.0
aF1100.0
aF0.323703
a(lp1152
F5.480173199999999
aa(lp1153
F47.978
aa(lp1154
F10.8899618
aa(lp1155
F0.4788047614633756
aaa(lp1156
F1300.0
aF2000.0
aF0.287845
a(lp1157
F4.8333856
aa(lp1158
F47.978
aa(lp1159
F10.8899618
aa(lp1160
F0.4526878907591852
aaa(lp1161
F1300.0
aF1300.0
aF0.318974
a(lp1162
F5.3940336
aa(lp1163
F47.978
aa(lp1164
F10.8899618
aa(lp1165
F0.47676952922769716
aaa(lp1166
F1300.0
aF1500.0
aF0.271131
a(lp1167
F2.23225074
aa(lp1168
F12.3188
aa(lp1169
F5.1794528
aa(lp1170
F0.30662321275467713
aaa(lp1171
F1300.0
aF600.0
aF0.246677
a(lp1172
F2.01834936
aa(lp1173
F12.3188
aa(lp1174
F5.1794528
aa(lp1175
F0.2913236328209574
aaa(lp1176
F1300.0
aF300.0
aF0.19788
a(lp1177
F1.6010106800000001
aa(lp1178
F12.3188
aa(lp1179
F5.1794528
aa(lp1180
F0.2597182568091816
aaa(lp1181
F1300.0
aF1900.0
aF0.313823
a(lp1182
F5.3004788000000005
aa(lp1183
F47.978
aa(lp1184
F10.8899618
aa(lp1185
F0.47220405970300594
aaa(lp1186
F1300.0
aF400.0
aF0.222249
a(lp1187
F1.8079426
aa(lp1188
F12.3188
aa(lp1189
F5.1794528
aa(lp1190
F0.2757086278664489
aaa(lp1191
F1300.0
aF700.0
aF0.261164
a(lp1192
F10.222143
aa(lp1193
F179.538
aa(lp1194
F27.3840668
aa(lp1195
F0.6557509344255638
aaa(lp1196
F1300.0
aF800.0
aF0.325054
a(lp1197
F5.5048844
aa(lp1198
F47.978
aa(lp1199
F10.8899618
aa(lp1200
F0.4828102674964566
aaa(lp1201
F1400.0
aF1100.0
aF0.18641
a(lp1202
F3.07195544
aa(lp1203
F47.978
aa(lp1204
F10.8899618
aa(lp1205
F0.29289945087008956
aaa(lp1206
F1400.0
aF400.0
aF0.143762
a(lp1207
F2.3550735
aa(lp1208
F47.978
aa(lp1209
F10.8899618
aa(lp1210
F0.2569595986142569
aaa(lp1211
F1400.0
aF1500.0
aF0.194768
a(lp1212
F3.2138185200000002
aa(lp1213
F47.978
aa(lp1214
F10.8899618
aa(lp1215
F0.2983955505700446
aaa(lp1216
F1400.0
aF1800.0
aF0.221963
a(lp1217
F3.67904274
aa(lp1218
F47.978
aa(lp1219
F10.8899618
aa(lp1220
F0.32143942919312185
aaa(lp1221
F1400.0
aF1600.0
aF0.214467
a(lp1222
F3.55023722
aa(lp1223
F47.978
aa(lp1224
F10.8899618
aa(lp1225
F0.31503260447134673
aaa(lp1226
F1400.0
aF1400.0
aF0.205634
a(lp1227
F1.6660464
aa(lp1228
F12.3188
aa(lp1229
F5.1794528
aa(lp1230
F0.21508564089682974
aaa(lp1231
F1400.0
aF600.0
aF0.174344
a(lp1232
F6.740449
aa(lp1233
F179.538
aa(lp1234
F27.3840668
aa(lp1235
F0.433292457723418
aaa(lp1236
F1400.0
aF1700.0
aF0.205076
a(lp1237
F3.3895030999999998
aa(lp1238
F47.978
aa(lp1239
F10.8899618
aa(lp1240
F0.30813662333452024
aaa(lp1241
F1400.0
aF900.0
aF0.21591
a(lp1242
F3.5749944200000003
aa(lp1243
F47.978
aa(lp1244
F10.8899618
aa(lp1245
F0.3159878586275112
aaa(lp1246
F1400.0
aF100.0
aF0.116281
a(lp1247
F1.89863206
aa(lp1248
F47.978
aa(lp1249
F10.8899618
aa(lp1250
F0.23024298165199303
aaa(lp1251
F1400.0
aF700.0
aF0.189628
a(lp1252
F1.5311398999999999
aa(lp1253
F12.3188
aa(lp1254
F5.1794528
aa(lp1255
F0.20645889498880884
aaa(lp1256
F1400.0
aF2000.0
aF0.224641
a(lp1257
F3.72515682
aa(lp1258
F47.978
aa(lp1259
F10.8899618
aa(lp1260
F0.32180453924704044
aaa(lp1261
F1400.0
aF800.0
aF0.203827
a(lp1262
F3.3681637
aa(lp1263
F47.978
aa(lp1264
F10.8899618
aa(lp1265
F0.30619667718641236
aaa(lp1266
F1400.0
aF1300.0
aF0.195361
a(lp1267
F3.22391
aa(lp1268
F47.978
aa(lp1269
F10.8899618
aa(lp1270
F0.29933253662106296
aaa(lp1271
F1400.0
aF300.0
aF0.134013
a(lp1272
F2.1927077600000002
aa(lp1273
F47.978
aa(lp1274
F10.8899618
aa(lp1275
F0.24669890490231203
aaa(lp1276
F1400.0
aF1200.0
aF0.226899
a(lp1277
F3.76409168
aa(lp1278
F47.978
aa(lp1279
F10.8899618
aa(lp1280
F0.32396141331954953
aaa(lp1281
F1400.0
aF500.0
aF0.206955
a(lp1282
F4.47870168
aa(lp1283
F27.319399999999998
aa(lp1284
F16.034657
aa(lp1285
F1.5834603191744339
aaa(lp1286
F1400.0
aF1000.0
aF0.20159
a(lp1287
F3.33000302
aa(lp1288
F47.978
aa(lp1289
F10.8899618
aa(lp1290
F0.3039863284425798
aaa(lp1291
F1400.0
aF200.0
aF0.128365
a(lp1292
F2.09887282
aa(lp1293
F47.978
aa(lp1294
F10.8899618
aa(lp1295
F0.2423569709333734
aaa(lp1296
F1400.0
aF1900.0
aF0.199342
a(lp1297
F3.29168962
aa(lp1298
F47.978
aa(lp1299
F10.8899618
aa(lp1300
F0.3030245941173752
aaa(lp1301
F1500.0
aF1500.0
aF0.170272
a(lp1302
F2.80120818
aa(lp1303
F47.978
aa(lp1304
F10.8899618
aa(lp1305
F0.5493621137282767
aaa(lp1306
F1500.0
aF1100.0
aF0.290163
a(lp1307
F6.49803544
aa(lp1308
F27.319399999999998
aa(lp1309
F16.034657
aa(lp1310
F3.7516422345420946
aaa(lp1311
F1500.0
aF1800.0
aF0.168939
a(lp1312
F2.77871878
aa(lp1313
F47.978
aa(lp1314
F10.8899618
aa(lp1315
F0.5449514987592933
aaa(lp1316
F1500.0
aF400.0
aF0.115713
a(lp1317
F15.208584399999998
aa(lp1318
F621.92
aa(lp1319
F101.24287199999999
aa(lp1320
F5.748304742095708
aaa(lp1321
F1500.0
aF200.0
aF0.101643
a(lp1322
F2.1803917200000003
aa(lp1323
F27.319399999999998
aa(lp1324
F16.034657
aa(lp1325
F2.1803922362730974
aaa(lp1326
F1500.0
aF500.0
aF0.10064
a(lp1327
F2.15832552
aa(lp1328
F27.319399999999998
aa(lp1329
F16.034657
aa(lp1330
F2.158324705877223
aaa(lp1331
F1500.0
aF1300.0
aF0.19652
a(lp1332
F4.29539812
aa(lp1333
F27.319399999999998
aa(lp1334
F16.034657
aa(lp1335
F3.0373058403789366
aaa(lp1336
F1500.0
aF600.0
aF0.286212
a(lp1337
F6.39998552
aa(lp1338
F27.319399999999998
aa(lp1339
F16.034657
aa(lp1340
F3.6950331441003343
aaa(lp1341
F1500.0
aF1000.0
aF0.173127
a(lp1342
F2.84941572
aa(lp1343
F47.978
aa(lp1344
F10.8899618
aa(lp1345
F0.5588163229541528
aaa(lp1346
F1500.0
aF2000.0
aF0.291977
a(lp1347
F6.543191800000001
aa(lp1348
F27.319399999999998
aa(lp1349
F16.034657
aa(lp1350
F3.777713136806446
aaa(lp1351
F1500.0
aF800.0
aF0.163596
a(lp1352
F1.3158415
aa(lp1353
F12.3188
aa(lp1354
F5.1794528
aa(lp1355
F0.37985069250957015
aaa(lp1356
F1500.0
aF1700.0
aF0.169217
a(lp1357
F2.78341768
aa(lp1358
F47.978
aa(lp1359
F10.8899618
aa(lp1360
F0.5458731057672652
aaa(lp1361
F1500.0
aF1200.0
aF0.212086
a(lp1362
F1.72372488
aa(lp1363
F12.3188
aa(lp1364
F5.1794528
aa(lp1365
F0.4309312309870335
aaa(lp1366
F1500.0
aF300.0
aF0.081764
a(lp1367
F0.6481492
aa(lp1368
F12.3188
aa(lp1369
F5.1794528
aa(lp1370
F0.26460577884845976
aaa(lp1371
F1500.0
aF1400.0
aF0.12197
a(lp1372
F0.97332642
aa(lp1373
F12.3188
aa(lp1374
F5.1794528
aa(lp1375
F0.3244420795149729
aaa(lp1376
F1500.0
aF100.0
aF0.101272
a(lp1377
F2.17223408
aa(lp1378
F27.319399999999998
aa(lp1379
F16.034657
aa(lp1380
F2.17223338967064
aaa(lp1381
F1500.0
aF900.0
aF0.159464
a(lp1382
F2.61937846
aa(lp1383
F47.978
aa(lp1384
F10.8899618
aa(lp1385
F0.5346783242286899
aaa(lp1386
F1500.0
aF700.0
aF0.291607
a(lp1387
F6.5339899599999995
aa(lp1388
F27.319399999999998
aa(lp1389
F16.034657
aa(lp1390
F3.7724005153217757
aaa(lp1391
F1500.0
aF1900.0
aF0.116651
a(lp1392
F4.48507912
aa(lp1393
F179.538
aa(lp1394
F27.3840668
aa(lp1395
F0.700451623168938
aaa(lp1396
F1500.0
aF1600.0
aF0.200875
a(lp1397
F4.39662388
aa(lp1398
F27.319399999999998
aa(lp1399
F16.034657
aa(lp1400
F3.1088813370728703
aaa(lp1401
F1600.0
aF1500.0
aF0.135083
a(lp1402
F2.9047592399999997
aa(lp1403
F27.319399999999998
aa(lp1404
F16.034657
aa(lp1405
F2.053974948240606
aaa(lp1406
F1600.0
aF100.0
aF0.076504
a(lp1407
F10.0242648
aa(lp1408
F621.92
aa(lp1409
F101.24287199999999
aa(lp1410
F3.7888142313921906
aaa(lp1411
F1600.0
aF1300.0
aF0.13518
a(lp1412
F2.90690192
aa(lp1413
F27.319399999999998
aa(lp1414
F16.034657
aa(lp1415
F2.0554902220151767
aaa(lp1416
F1600.0
aF900.0
aF0.12015
a(lp1417
F1.96318156
aa(lp1418
F47.978
aa(lp1419
F10.8899618
aa(lp1420
F0.3778144410156923
aaa(lp1421
F1600.0
aF300.0
aF0.134829
a(lp1422
F2.89914724
aa(lp1423
F27.319399999999998
aa(lp1424
F16.034657
aa(lp1425
F2.050005882918388
aaa(lp1426
F1600.0
aF500.0
aF0.055602
a(lp1427
F7.278056519999999
aa(lp1428
F621.92
aa(lp1429
F101.24287199999999
aa(lp1430
F3.254846363194429
aaa(lp1431
F1600.0
aF1000.0
aF0.199902
a(lp1432
F4.3498455599999994
aa(lp1433
F27.319399999999998
aa(lp1434
F16.034657
aa(lp1435
F2.5113839760578225
aaa(lp1436
F1600.0
aF1200.0
aF0.13413
a(lp1437
F2.8836581199999993
aa(lp1438
F27.319399999999998
aa(lp1439
F16.034657
aa(lp1440
F2.039054385934813
aaa(lp1441
F1600.0
aF1800.0
aF0.108127
a(lp1442
F0.86045668
aa(lp1443
F12.3188
aa(lp1444
F5.1794528
aa(lp1445
F0.24839246099670578
aaa(lp1446
F1600.0
aF1100.0
aF0.086894
a(lp1447
F3.3331347
aa(lp1448
F179.538
aa(lp1449
F27.3840668
aa(lp1450
F0.4914438584416332
aaa(lp1451
F1600.0
aF1900.0
aF0.133642
a(lp1452
F2.8728692799999997
aa(lp1453
F27.319399999999998
aa(lp1454
F16.034657
aa(lp1455
F2.031425832266588
aaa(lp1456
F1600.0
aF1700.0
aF0.095255
a(lp1457
F3.6559930599999997
aa(lp1458
F179.538
aa(lp1459
F27.3840668
aa(lp1460
F0.5170354982010423
aaa(lp1461
F1600.0
aF800.0
aF0.099036
a(lp1462
F3.8021681800000002
aa(lp1463
F179.538
aa(lp1464
F27.3840668
aa(lp1465
F0.5222679641716501
aaa(lp1466
F1600.0
aF200.0
aF0.134007
a(lp1467
F2.88095056
aa(lp1468
F27.319399999999998
aa(lp1469
F16.034657
aa(lp1470
F2.037139694375425
aaa(lp1471
F1600.0
aF1600.0
aF0.135653
a(lp1472
F2.91738716
aa(lp1473
F27.319399999999998
aa(lp1474
F16.034657
aa(lp1475
F2.062904041975777
aaa(lp1476
F1600.0
aF2000.0
aF0.092466
a(lp1477
F1.50630036
aa(lp1478
F47.978
aa(lp1479
F10.8899618
aa(lp1480
F0.32870172205207565
aaa(lp1481
F1600.0
aF1400.0
aF0.110938
a(lp1482
F1.81075918
aa(lp1483
F47.978
aa(lp1484
F10.8899618
aa(lp1485
F0.3621518095495313
aaa(lp1486
F1600.0
aF700.0
aF0.200618
a(lp1487
F4.36622616
aa(lp1488
F27.319399999999998
aa(lp1489
F16.034657
aa(lp1490
F2.520841634692667
aaa(lp1491
F1600.0
aF400.0
aF0.134026
a(lp1492
F2.8813737600000002
aa(lp1493
F27.319399999999998
aa(lp1494
F16.034657
aa(lp1495
F2.037438613553792
aaa(lp1496
F1600.0
aF600.0
aF0.121295
a(lp1497
F15.941106800000002
aa(lp1498
F621.92
aa(lp1499
F101.24287199999999
aa(lp1500
F4.80642375493464
aaa(lp1501
F1700.0
aF900.0
aF0.089787
a(lp1502
F1.91436084
aa(lp1503
F27.319399999999998
aa(lp1504
F16.034657
aa(lp1505
F1.3536576873050288
aaa(lp1506
F1700.0
aF1500.0
aF0.089488
a(lp1507
F1.9078803599999998
aa(lp1508
F27.319399999999998
aa(lp1509
F16.034657
aa(lp1510
F1.3490754647535474
aaa(lp1511
F1700.0
aF1800.0
aF0.177758
a(lp1512
F3.83871564
aa(lp1513
F27.319399999999998
aa(lp1514
F16.034657
aa(lp1515
F1.9193574829093198
aaa(lp1516
F1700.0
aF700.0
aF0.090867
a(lp1517
F1.9377178
aa(lp1518
F27.319399999999998
aa(lp1519
F16.034657
aa(lp1520
F1.3701731452630357
aaa(lp1521
F1700.0
aF500.0
aF0.045565
a(lp1522
F0.96685744
aa(lp1523
F27.319399999999998
aa(lp1524
F16.034657
aa(lp1525
F0.9668574099628134
aaa(lp1526
F1700.0
aF300.0
aF0.045468
a(lp1527
F0.9647920400000001
aa(lp1528
F27.319399999999998
aa(lp1529
F16.034657
aa(lp1530
F0.9647918540286292
aaa(lp1531
F1700.0
aF800.0
aF0.090184
a(lp1532
F1.9229425999999998
aa(lp1533
F27.319399999999998
aa(lp1534
F16.034657
aa(lp1535
F1.359725452876425
aaa(lp1536
F1700.0
aF1300.0
aF0.074602
a(lp1537
F1.2130889999999999
aa(lp1538
F47.978
aa(lp1539
F10.8899618
aa(lp1540
F0.24261784147090254
aaa(lp1541
F1700.0
aF400.0
aF0.048571
a(lp1542
F0.383052764
aa(lp1543
F12.3188
aa(lp1544
F5.1794528
aa(lp1545
F0.13542960144665567
aaa(lp1546
F1700.0
aF1000.0
aF0.090063
a(lp1547
F1.9203150800000002
aa(lp1548
F27.319399999999998
aa(lp1549
F16.034657
aa(lp1550
F1.357868264597122
aaa(lp1551
F1700.0
aF2000.0
aF0.090959
a(lp1552
F1.9397040799999998
aa(lp1553
F27.319399999999998
aa(lp1554
F16.034657
aa(lp1555
F1.3715780744820907
aaa(lp1556
F1700.0
aF1600.0
aF0.055026
a(lp1557
F2.10664314
aa(lp1558
F179.538
aa(lp1559
F27.3840668
aa(lp1560
F0.3175883774321724
aaa(lp1561
F1700.0
aF1400.0
aF0.134985
a(lp1562
F2.89547828
aa(lp1563
F27.319399999999998
aa(lp1564
F16.034657
aa(lp1565
F1.6717053151796817
aaa(lp1566
F1700.0
aF1200.0
aF0.133422
a(lp1567
F2.86114204
aa(lp1568
F27.319399999999998
aa(lp1569
F16.034657
aa(lp1570
F1.6518817124721734
aaa(lp1571
F1700.0
aF100.0
aF0.032539
a(lp1572
F0.52735964
aa(lp1573
F47.978
aa(lp1574
F10.8899618
aa(lp1575
F0.15900484055524852
aaa(lp1576
F1700.0
aF1700.0
aF0.0745
a(lp1577
F1.2114187399999998
aa(lp1578
F47.978
aa(lp1579
F10.8899618
aa(lp1580
F0.2422837510853751
aaa(lp1581
F1700.0
aF1900.0
aF0.089383
a(lp1582
F1.45547082
aa(lp1583
F47.978
aa(lp1584
F10.8899618
aa(lp1585
F0.26573141349866786
aaa(lp1586
F1700.0
aF1100.0
aF0.179452
a(lp1587
F3.8766674799999996
aa(lp1588
F27.319399999999998
aa(lp1589
F16.034657
aa(lp1590
F1.9383336752994826
aaa(lp1591
F1700.0
aF600.0
aF0.091216
a(lp1592
F1.9452618
aa(lp1593
F27.319399999999998
aa(lp1594
F16.034657
aa(lp1595
F1.3755076880919277
aaa(lp1596
F1700.0
aF200.0
aF0.044173
a(lp1597
F5.778563239999999
aa(lp1598
F621.92
aa(lp1599
F101.24287199999999
aa(lp1600
F2.3590888207102334
aaa(lp1601
F1800.0
aF600.0
aF0.150342
a(lp1602
F3.22653752
aa(lp1603
F27.319399999999998
aa(lp1604
F16.034657
aa(lp1605
F1.4429512989702733
aaa(lp1606
F1800.0
aF1800.0
aF0.043342
a(lp1607
F0.70295498
aa(lp1608
F47.978
aa(lp1609
F10.8899618
aa(lp1610
F0.1498705131772091
aaa(lp1611
F1800.0
aF400.0
aF0.090081
a(lp1612
F1.91863976
aa(lp1613
F27.319399999999998
aa(lp1614
F16.034657
aa(lp1615
F1.1077269923586768
aaa(lp1616
F1800.0
aF1300.0
aF0.091607
a(lp1617
F1.9515564399999998
aa(lp1618
F27.319399999999998
aa(lp1619
F16.034657
aa(lp1620
F1.1267314782147517
aaa(lp1621
F1800.0
aF1200.0
aF0.060364
a(lp1622
F1.28184888
aa(lp1623
F27.319399999999998
aa(lp1624
F16.034657
aa(lp1625
F0.9064043383832625
aaa(lp1626
F1800.0
aF1700.0
aF0.051971
a(lp1627
F0.84344128
aa(lp1628
F47.978
aa(lp1629
F10.8899618
aa(lp1630
F0.16541244378824707
aaa(lp1631
F1800.0
aF500.0
aF0.029987
a(lp1632
F0.6351389279999999
aa(lp1633
F27.319399999999998
aa(lp1634
F16.034657
aa(lp1635
F0.6351388428997238
aaa(lp1636
F1800.0
aF1600.0
aF0.119974
a(lp1637
F2.5643114
aa(lp1638
F27.319399999999998
aa(lp1639
F16.034657
aa(lp1640
F1.2821559131400517
aaa(lp1641
F1800.0
aF1000.0
aF0.043155
a(lp1642
F0.69991392
aa(lp1643
F47.978
aa(lp1644
F10.8899618
aa(lp1645
F0.1492221849458049
aaa(lp1646
F1800.0
aF700.0
aF0.061705
a(lp1647
F1.31053264
aa(lp1648
F27.319399999999998
aa(lp1649
F16.034657
aa(lp1650
F0.9266866404562006
aaa(lp1651
F1800.0
aF200.0
aF0.060883
a(lp1652
F1.2929689199999999
aa(lp1653
F27.319399999999998
aa(lp1654
F16.034657
aa(lp1655
F0.9142674682607929
aaa(lp1656
F1800.0
aF800.0
aF0.089584
a(lp1657
F1.9079401599999999
aa(lp1658
F27.319399999999998
aa(lp1659
F16.034657
aa(lp1660
F1.1015493132856105
aaa(lp1661
F1800.0
aF2000.0
aF0.053849
a(lp1662
F0.424945746
aa(lp1663
F12.3188
aa(lp1664
F5.1794528
aa(lp1665
F0.11785873282875564
aaa(lp1666
F1800.0
aF1100.0
aF0.061162
a(lp1667
F1.29893144
aa(lp1668
F27.319399999999998
aa(lp1669
F16.034657
aa(lp1670
F0.918483003304906
aaa(lp1671
F1800.0
aF900.0
aF0.052012
a(lp1672
F0.84411794
aa(lp1673
F47.978
aa(lp1674
F10.8899618
aa(lp1675
F0.165545174257663
aaa(lp1676
F1800.0
aF1500.0
aF0.120964
a(lp1677
F2.5858513599999995
aa(lp1678
F27.319399999999998
aa(lp1679
F16.034657
aa(lp1680
F1.292925724084721
aaa(lp1681
F1800.0
aF1400.0
aF0.068503
a(lp1682
F8.969214319999999
aa(lp1683
F621.92
aa(lp1684
F101.24287199999999
aa(lp1685
F2.397123159789668
aaa(lp1686
F1800.0
aF1900.0
aF0.090968
a(lp1687
F1.9377674799999998
aa(lp1688
F27.319399999999998
aa(lp1689
F16.034657
aa(lp1690
F1.1187706896410898
aaa(lp1691
F1800.0
aF100.0
aF0.040295
a(lp1692
F5.270185039999999
aa(lp1693
F621.92
aa(lp1694
F101.24287199999999
aa(lp1695
F1.8632923326198707
aaa(lp1696
F1800.0
aF300.0
aF0.0304
a(lp1697
F0.643922352
aa(lp1698
F27.319399999999998
aa(lp1699
F16.034657
aa(lp1700
F0.643922189585046
aaa(lp1701
F1900.0
aF300.0
aF0.041051
a(lp1702
F0.8699956999999999
aa(lp1703
F27.319399999999998
aa(lp1704
F16.034657
aa(lp1705
F0.6151797922558899
aaa(lp1706
F1900.0
aF1600.0
aF0.10133
a(lp1707
F2.1592583999999997
aa(lp1708
F27.319399999999998
aa(lp1709
F16.034657
aa(lp1710
F0.965649460207999
aaa(lp1711
F1900.0
aF600.0
aF0.081774
a(lp1712
F1.7390962399999998
aa(lp1713
F27.319399999999998
aa(lp1714
F16.034657
aa(lp1715
F0.869548355596168
aaa(lp1716
F1900.0
aF1500.0
aF0.04088
a(lp1717
F0.866344404
aa(lp1718
F27.319399999999998
aa(lp1719
F16.034657
aa(lp1720
F0.612598080963367
aaa(lp1721
F1900.0
aF500.0
aF0.060876
a(lp1722
F1.29216852
aa(lp1723
F27.319399999999998
aa(lp1724
F16.034657
aa(lp1725
F0.7460336670151019
aaa(lp1726
F1900.0
aF1700.0
aF0.080178
a(lp1727
F1.7048474
aa(lp1728
F27.319399999999998
aa(lp1729
F16.034657
aa(lp1730
F0.8524237150150152
aaa(lp1731
F1900.0
aF1800.0
aF0.04643
a(lp1732
F6.073479359999999
aa(lp1733
F621.92
aa(lp1734
F101.24287199999999
aa(lp1735
F1.6232056702710227
aaa(lp1736
F1900.0
aF800.0
aF0.07986
a(lp1737
F1.6980200799999998
aa(lp1738
F27.319399999999998
aa(lp1739
F16.034657
aa(lp1740
F0.8490100756057021
aaa(lp1741
F1900.0
aF1300.0
aF0.061626
a(lp1742
F1.30819768
aa(lp1743
F27.319399999999998
aa(lp1744
F16.034657
aa(lp1745
F0.7552883428201445
aaa(lp1746
F1900.0
aF1000.0
aF0.1434
a(lp1747
F3.0711697599999996
aa(lp1748
F27.319399999999998
aa(lp1749
F16.034657
aa(lp1750
F1.1607932067340847
aaa(lp1751
F1900.0
aF1900.0
aF0.042561
a(lp1752
F5.56659156
aa(lp1753
F621.92
aa(lp1754
F101.24287199999999
aa(lp1755
F1.5438948689596712
aaa(lp1756
F1900.0
aF1200.0
aF0.040521
a(lp1757
F0.858709416
aa(lp1758
F27.319399999999998
aa(lp1759
F16.034657
aa(lp1760
F0.6071992333328493
aaa(lp1761
F1900.0
aF100.0
aF0.022209
a(lp1762
F0.17457156399999998
aa(lp1763
F12.3188
aa(lp1764
F5.1794528
aa(lp1765
F0.06172037893597219
aaa(lp1766
F1900.0
aF2000.0
aF0.060981
a(lp1767
F1.29441424
aa(lp1768
F27.319399999999998
aa(lp1769
F16.034657
aa(lp1770
F0.7473303327444967
aaa(lp1771
F1900.0
aF1100.0
aF0.061804
a(lp1772
F1.31199452
aa(lp1773
F27.319399999999998
aa(lp1774
F16.034657
aa(lp1775
F0.7574804230869601
aaa(lp1776
F1900.0
aF900.0
aF0.040594
a(lp1777
F0.8602694599999999
aa(lp1778
F27.319399999999998
aa(lp1779
F16.034657
aa(lp1780
F0.6083024416192984
aaa(lp1781
F1900.0
aF200.0
aF0.019106
a(lp1782
F0.15013043
aa(lp1783
F12.3188
aa(lp1784
F5.1794528
aa(lp1785
F0.05674395999575637
aaa(lp1786
F1900.0
aF400.0
aF0.021384
a(lp1787
F0.34630736599999995
aa(lp1788
F47.978
aa(lp1789
F10.8899618
aa(lp1790
F0.08657685161750803
aaa(lp1791
F1900.0
aF700.0
aF0.121368
a(lp1792
F2.5921055199999996
aa(lp1793
F27.319399999999998
aa(lp1794
F16.034657
aa(lp1795
F1.0582223766297894
aaa(lp1796
F1900.0
aF1400.0
aF0.081459
a(lp1797
F1.73233148
aa(lp1798
F27.319399999999998
aa(lp1799
F16.034657
aa(lp1800
F0.8661653668439994
aaa(lp1801
F2000.0
aF1500.0
aF0.054215
a(lp1802
F1.14980956
aa(lp1803
F27.319399999999998
aa(lp1804
F16.034657
aa(lp1805
F0.5749048273236188
aaa(lp1806
F2000.0
aF1200.0
aF0.05394
a(lp1807
F1.14396664
aa(lp1808
F27.319399999999998
aa(lp1809
F16.034657
aa(lp1810
F0.5719831706615153
aaa(lp1811
F2000.0
aF1300.0
aF0.054857
a(lp1812
F1.16349824
aa(lp1813
F27.319399999999998
aa(lp1814
F16.034657
aa(lp1815
F0.5817492532010677
aaa(lp1816
F2000.0
aF300.0
aF0.027512
a(lp1817
F0.5824144639999999
aa(lp1818
F27.319399999999998
aa(lp1819
F16.034657
aa(lp1820
F0.4118292422837407
aaa(lp1821
F2000.0
aF900.0
aF0.067598
a(lp1822
F1.4351852799999998
aa(lp1823
F27.319399999999998
aa(lp1824
F16.034657
aa(lp1825
F0.6418344246299039
aaa(lp1826
F2000.0
aF1900.0
aF0.040917
a(lp1827
F0.8669385399999999
aa(lp1828
F27.319399999999998
aa(lp1829
F16.034657
aa(lp1830
F0.500527181599561
aaa(lp1831
F2000.0
aF1600.0
aF0.094311
a(lp1832
F2.0071915999999996
aa(lp1833
F27.319399999999998
aa(lp1834
F16.034657
aa(lp1835
F0.7586470840120589
aaa(lp1836
F2000.0
aF500.0
aF0.027525
a(lp1837
F0.58269396
aa(lp1838
F27.319399999999998
aa(lp1839
F16.034657
aa(lp1840
F0.412026907082535
aaa(lp1841
F2000.0
aF600.0
aF0.040761
a(lp1842
F0.863627
aa(lp1843
F27.319399999999998
aa(lp1844
F16.034657
aa(lp1845
F0.4986153019713695
aaa(lp1846
F2000.0
aF200.0
aF0.011034
a(lp1847
F0.08662710800000001
aa(lp1848
F12.3188
aa(lp1849
F5.1794528
aa(lp1850
F0.03536537020872254
aaa(lp1851
F2000.0
aF1800.0
aF0.040633
a(lp1852
F0.860914472
aa(lp1853
F27.319399999999998
aa(lp1854
F16.034657
aa(lp1855
F0.4970491893565464
aaa(lp1856
F2000.0
aF2000.0
aF0.018936
a(lp1857
F0.306620084
aa(lp1858
F47.978
aa(lp1859
F10.8899618
aa(lp1860
F0.06690998463607654
aaa(lp1861
F2000.0
aF400.0
aF0.027275
a(lp1862
F0.5773887799999999
aa(lp1863
F27.319399999999998
aa(lp1864
F16.034657
aa(lp1865
F0.4082755389194899
aaa(lp1866
F2000.0
aF1100.0
aF0.027977
a(lp1867
F0.59226518
aa(lp1868
F27.319399999999998
aa(lp1869
F16.034657
aa(lp1870
F0.41879477226918677
aaa(lp1871
F2000.0
aF100.0
aF0.019366
a(lp1872
F0.31358843999999997
aa(lp1873
F47.978
aa(lp1874
F10.8899618
aa(lp1875
F0.0668572773301456
aaa(lp1876
F2000.0
aF1400.0
aF0.040646
a(lp1877
F0.8611840319999999
aa(lp1878
F27.319399999999998
aa(lp1879
F16.034657
aa(lp1880
F0.49720480544741313
aaa(lp1881
F2000.0
aF1700.0
aF0.068249
a(lp1882
F1.4490892399999997
aa(lp1883
F27.319399999999998
aa(lp1884
F16.034657
aa(lp1885
F0.6480522708547513
aaa(lp1886
F2000.0
aF700.0
aF0.0276
a(lp1887
F0.584281972
aa(lp1888
F27.319399999999998
aa(lp1889
F16.034657
aa(lp1890
F0.413149864915868
aaa(lp1891
F2000.0
aF1000.0
aF0.040523
a(lp1892
F0.858574176
aa(lp1893
F27.319399999999998
aa(lp1894
F16.034657
aa(lp1895
F0.49569810021826793
aaa(lp1896
F2000.0
aF800.0
aF0.040588
a(lp1897
F0.859951232
aa(lp1898
F27.319399999999998
aa(lp1899
F16.034657
aa(lp1900
F0.49649306814899236
aaa(lp1901
F2100.0
aF200.0
aF0.018354
a(lp1902
F0.38829427999999994
aa(lp1903
F27.319399999999998
aa(lp1904
F16.034657
aa(lp1905
F0.2745655188839269
aaa(lp1906
F2100.0
aF100.0
aF0.018154
a(lp1907
F0.384067984
aa(lp1908
F27.319399999999998
aa(lp1909
F16.034657
aa(lp1910
F0.2715771902940304
aaa(lp1911
F2100.0
aF400.0
aF0.005773
a(lp1912
F0.22062809800000002
aa(lp1913
F179.538
aa(lp1914
F27.3840668
aa(lp1915
F0.04600413981371677
aaa(lp1916
F2100.0
aF1400.0
aF0.018085
a(lp1917
F0.3826020559999999
aa(lp1918
F27.319399999999998
aa(lp1919
F16.034657
aa(lp1920
F0.27054062245807003
aaa(lp1921
F2100.0
aF500.0
aF0.018206
a(lp1922
F0.38517097200000006
aa(lp1923
F27.319399999999998
aa(lp1924
F16.034657
aa(lp1925
F0.2723571704361756
aaa(lp1926
F2100.0
aF800.0
aF0.053675
a(lp1927
F1.1380905999999997
aa(lp1928
F27.319399999999998
aa(lp1929
F16.034657
aa(lp1930
F0.46462340931123985
aaa(lp1931
F2100.0
aF300.0
aF0.018123
a(lp1932
F0.38341322
aa(lp1933
F27.319399999999998
aa(lp1934
F16.034657
aa(lp1935
F0.2711141348731194
aaa(lp1936
F2100.0
aF600.0
aF0.018481
a(lp1937
F0.3909977
aa(lp1938
F27.319399999999998
aa(lp1939
F16.034657
aa(lp1940
F0.2764772666820909
aaa(lp1941
F2100.0
aF700.0
aF0.010665
a(lp1942
F0.17261233199999998
aa(lp1943
F47.978
aa(lp1944
F10.8899618
aa(lp1945
F0.04068511080972989
aaa(lp1946
F2100.0
aF1000.0
aF0.036221
a(lp1947
F0.7671022559999999
aa(lp1948
F27.319399999999998
aa(lp1949
F16.034657
aa(lp1950
F0.38355118876103095
aaa(lp1951
F2100.0
aF1700.0
aF0.027729
a(lp1952
F0.586945096
aa(lp1953
F27.319399999999998
aa(lp1954
F16.034657
aa(lp1955
F0.3388728554487656
aaa(lp1956
F2100.0
aF1800.0
aF0.017765
a(lp1957
F0.375825704
aa(lp1958
F27.319399999999998
aa(lp1959
F16.034657
aa(lp1960
F0.2657488756250908
aaa(lp1961
F2100.0
aF1900.0
aF0.027315
a(lp1962
F0.5781822799999999
aa(lp1963
F27.319399999999998
aa(lp1964
F16.034657
aa(lp1965
F0.33381373105371204
aaa(lp1966
F2100.0
aF900.0
aF0.013661
a(lp1967
F0.22112411599999998
aa(lp1968
F47.978
aa(lp1969
F10.8899618
aa(lp1970
F0.046107560247751124
aaa(lp1971
F2100.0
aF2000.0
aF0.064483
a(lp1972
F1.36839236
aa(lp1973
F27.319399999999998
aa(lp1974
F16.034657
aa(lp1975
F0.5172039206347918
aaa(lp1976
F2100.0
aF1200.0
aF0.054542
a(lp1977
F1.1565485599999998
aa(lp1978
F27.319399999999998
aa(lp1979
F16.034657
aa(lp1980
F0.47215902236428775
aaa(lp1981
F2100.0
aF1500.0
aF0.027308
a(lp1982
F0.578019532
aa(lp1983
F27.319399999999998
aa(lp1984
F16.034657
aa(lp1985
F0.33371977585992707
aaa(lp1986
F2100.0
aF1100.0
aF0.018436
a(lp1987
F0.39003354
aa(lp1988
F27.319399999999998
aa(lp1989
F16.034657
aa(lp1990
F0.275795408170622
aaa(lp1991
F2100.0
aF1300.0
aF0.027199
a(lp1992
F0.575707756
aa(lp1993
F27.319399999999998
aa(lp1994
F16.034657
aa(lp1995
F0.33238506320230454
aaa(lp1996
F2100.0
aF1600.0
aF0.027038
a(lp1997
F0.5723019159999999
aa(lp1998
F27.319399999999998
aa(lp1999
F16.034657
aa(lp2000
F0.33041861158233804
aaa(lp2001
F2200.0
aF1700.0
aF0.05489
a(lp2002
F1.16382576
aa(lp2003
F27.319399999999998
aa(lp2004
F16.034657
aa(lp2005
F0.3879418665728152
aaa(lp2006
F2200.0
aF1100.0
aF0.024542
a(lp2007
F0.519373396
aa(lp2008
F27.319399999999998
aa(lp2009
F16.034657
aa(lp2010
F0.259686684140716
aaa(lp2011
F2200.0
aF200.0
aF0.018305
a(lp2012
F0.38725182799999996
aa(lp2013
F27.319399999999998
aa(lp2014
F16.034657
aa(lp2015
F0.22357993244475227
aaa(lp2016
F2200.0
aF1800.0
aF0.012097
a(lp2017
F0.255841328
aa(lp2018
F27.319399999999998
aa(lp2019
F16.034657
aa(lp2020
F0.1809071166317124
aaa(lp2021
F2200.0
aF900.0
aF0.012206
a(lp2022
F0.258147584
aa(lp2023
F27.319399999999998
aa(lp2024
F16.034657
aa(lp2025
F0.18253789993313715
aaa(lp2026
F2200.0
aF1000.0
aF0.017996
a(lp2027
F0.38069369999999997
aa(lp2028
F27.319399999999998
aa(lp2029
F16.034657
aa(lp2030
F0.2197936223642533
aaa(lp2031
F2200.0
aF1300.0
aF0.030138
a(lp2032
F0.637994148
aa(lp2033
F27.319399999999998
aa(lp2034
F16.034657
aa(lp2035
F0.2853197084254784
aaa(lp2036
F2200.0
aF1900.0
aF0.030329
a(lp2037
F0.642038008
aa(lp2038
F27.319399999999998
aa(lp2039
F16.034657
aa(lp2040
F0.28712807943494484
aaa(lp2041
F2200.0
aF1400.0
aF0.018439
a(lp2042
F0.3900869
aa(lp2043
F27.319399999999998
aa(lp2044
F16.034657
aa(lp2045
F0.22521671405115562
aaa(lp2046
F2200.0
aF1600.0
aF0.011991
a(lp2047
F0.253585304
aa(lp2048
F27.319399999999998
aa(lp2049
F16.034657
aa(lp2050
F0.17931189426248328
aaa(lp2051
F2200.0
aF800.0
aF0.018181
a(lp2052
F0.38461418799999997
aa(lp2053
F27.319399999999998
aa(lp2054
F16.034657
aa(lp2055
F0.22205712792882826
aaa(lp2056
F2200.0
aF400.0
aF0.017857
a(lp2057
F0.377754944
aa(lp2058
F27.319399999999998
aa(lp2059
F16.034657
aa(lp2060
F0.21809699761344722
aaa(lp2061
F2200.0
aF600.0
aF0.018145
a(lp2062
F0.383868344
aa(lp2063
F27.319399999999998
aa(lp2064
F16.034657
aa(lp2065
F0.2216265105803004
aaa(lp2066
F2200.0
aF2000.0
aF0.030423
a(lp2067
F0.6440264039999999
aa(lp2068
F27.319399999999998
aa(lp2069
F16.034657
aa(lp2070
F0.28801739875222815
aaa(lp2071
F2200.0
aF500.0
aF0.012088
a(lp2072
F0.25564914
aa(lp2073
F27.319399999999998
aa(lp2074
F16.034657
aa(lp2075
F0.18077124457169616
aaa(lp2076
F2200.0
aF700.0
aF0.011755
a(lp2077
F1.53639816
aa(lp2078
F621.92
aa(lp2079
F101.24287199999999
aa(lp2080
F0.4435200633116837
aaa(lp2081
F2200.0
aF300.0
aF0.018332
a(lp2082
F0.38781109599999997
aa(lp2083
F27.319399999999998
aa(lp2084
F16.034657
aa(lp2085
F0.22390286300983292
aaa(lp2086
F2200.0
aF1200.0
aF0.018139
a(lp2087
F0.38374000399999997
aa(lp2088
F27.319399999999998
aa(lp2089
F16.034657
aa(lp2090
F0.22155238975917185
aaa(lp2091
F2200.0
aF1500.0
aF0.024073
a(lp2092
F0.509427552
aa(lp2093
F27.319399999999998
aa(lp2094
F16.034657
aa(lp2095
F0.25471379257511756
aaa(lp2096
F2200.0
aF100.0
aF0.018186
a(lp2097
F0.38472265600000005
aa(lp2098
F27.319399999999998
aa(lp2099
F16.034657
aa(lp2100
F0.22211974421018946
aaa(lp2101
F2300.0
aF700.0
aF0.008056
a(lp2102
F0.17033753999999998
aa(lp2103
F27.319399999999998
aa(lp2104
F16.034657
aa(lp2105
F0.12044683427969372
aaa(lp2106
F2300.0
aF100.0
aF0.008152
a(lp2107
F0.17236144799999997
aa(lp2108
F27.319399999999998
aa(lp2109
F16.034657
aa(lp2110
F0.12187795272320584
aaa(lp2111
F2300.0
aF1800.0
aF0.020281
a(lp2112
F0.429072636
aa(lp2113
F27.319399999999998
aa(lp2114
F16.034657
aa(lp2115
F0.1918871680962539
aaa(lp2116
F2300.0
aF1000.0
aF0.020033
a(lp2117
F0.423825416
aa(lp2118
F27.319399999999998
aa(lp2119
F16.034657
aa(lp2120
F0.18954047559294554
aaa(lp2121
F2300.0
aF1500.0
aF0.01628
a(lp2122
F0.34436427999999997
aa(lp2123
F27.319399999999998
aa(lp2124
F16.034657
aa(lp2125
F0.1721821476924945
aaa(lp2126
F2300.0
aF1200.0
aF0.020087
a(lp2127
F0.42498010799999997
aa(lp2128
F27.319399999999998
aa(lp2129
F16.034657
aa(lp2130
F0.19005688129610038
aaa(lp2131
F2300.0
aF500.0
aF0.008148
a(lp2132
F0.17228655999999998
aa(lp2133
F27.319399999999998
aa(lp2134
F16.034657
aa(lp2135
F0.12182498824132919
aaa(lp2136
F2300.0
aF1900.0
aF0.028066
a(lp2137
F0.594027348
aa(lp2138
F27.319399999999998
aa(lp2139
F16.034657
aa(lp2140
F0.2245212076931709
aaa(lp2141
F2300.0
aF1300.0
aF0.015909
a(lp2142
F0.33650692800000004
aa(lp2143
F27.319399999999998
aa(lp2144
F16.034657
aa(lp2145
F0.16825346246660125
aaa(lp2146
F2300.0
aF1600.0
aF0.023901
a(lp2147
F0.5057681599999999
aa(lp2148
F27.319399999999998
aa(lp2149
F16.034657
aa(lp2150
F0.20647895133402824
aaa(lp2151
F2300.0
aF1700.0
aF0.028421
a(lp2152
F0.601558652
aa(lp2153
F27.319399999999998
aa(lp2154
F16.034657
aa(lp2155
F0.22736779564397414
aaa(lp2156
F2300.0
aF1400.0
aF0.024392
a(lp2157
F0.516168852
aa(lp2158
F27.319399999999998
aa(lp2159
F16.034657
aa(lp2160
F0.2107250109123262
aaa(lp2161
F2300.0
aF1100.0
aF0.00818
a(lp2162
F0.17296901599999998
aa(lp2163
F27.319399999999998
aa(lp2164
F16.034657
aa(lp2165
F0.12230755567829812
aaa(lp2166
F2300.0
aF900.0
aF0.020178
a(lp2167
F0.426903552
aa(lp2168
F27.319399999999998
aa(lp2169
F16.034657
aa(lp2170
F0.1909170691164098
aaa(lp2171
F2300.0
aF2000.0
aF0.028225
a(lp2172
F0.597402184
aa(lp2173
F27.319399999999998
aa(lp2174
F16.034657
aa(lp2175
F0.22579679034034117
aaa(lp2176
F2300.0
aF300.0
aF0.004063
a(lp2177
F0.0859007864
aa(lp2178
F27.319399999999998
aa(lp2179
F16.034657
aa(lp2180
F0.08590078969602084
aaa(lp2181
F2300.0
aF200.0
aF0.012054
a(lp2182
F0.25492316800000003
aa(lp2183
F27.319399999999998
aa(lp2184
F16.034657
aa(lp2185
F0.14717993113193115
aaa(lp2186
F2300.0
aF400.0
aF0.012085
a(lp2187
F0.25557710399999994
aa(lp2188
F27.319399999999998
aa(lp2189
F16.034657
aa(lp2190
F0.14755753204767283
aaa(lp2191
F2300.0
aF800.0
aF0.016085
a(lp2192
F0.34024083999999993
aa(lp2193
F27.319399999999998
aa(lp2194
F16.034657
aa(lp2195
F0.170120438701527
aaa(lp2196
F2300.0
aF600.0
aF0.004843
a(lp2197
F0.0783495
aa(lp2198
F47.978
aa(lp2199
F10.8899618
aa(lp2200
F0.018467152460517566
aaa(lp2201
F2400.0
aF1200.0
aF0.018513
a(lp2202
F0.391629372
aa(lp2203
F27.319399999999998
aa(lp2204
F16.034657
aa(lp2205
F0.14802199614922099
aaa(lp2206
F2400.0
aF1500.0
aF0.0081
a(lp2207
F0.171278148
aa(lp2208
F27.319399999999998
aa(lp2209
F16.034657
aa(lp2210
F0.09888746153077244
aaa(lp2211
F2400.0
aF1100.0
aF0.00524
a(lp2212
F0.11078014400000001
aa(lp2213
F27.319399999999998
aa(lp2214
F16.034657
aa(lp2215
F0.07833338905983832
aaa(lp2216
F2400.0
aF1600.0
aF0.01881
a(lp2217
F0.39792143599999996
aa(lp2218
F27.319399999999998
aa(lp2219
F16.034657
aa(lp2220
F0.15040016382969798
aaa(lp2221
F2400.0
aF400.0
aF0.013462
a(lp2222
F0.284713136
aa(lp2223
F27.319399999999998
aa(lp2224
F16.034657
aa(lp2225
F0.1273276011554447
aaa(lp2226
F2400.0
aF1300.0
aF0.01331
a(lp2227
F0.281506016
aa(lp2228
F27.319399999999998
aa(lp2229
F16.034657
aa(lp2230
F0.12589331902845363
aaa(lp2231
F2400.0
aF200.0
aF0.00541
a(lp2232
F0.114387832
aa(lp2233
F27.319399999999998
aa(lp2234
F16.034657
aa(lp2235
F0.08088442540810932
aaa(lp2236
F2400.0
aF1700.0
aF0.021677
a(lp2237
F0.458636744
aa(lp2238
F27.319399999999998
aa(lp2239
F16.034657
aa(lp2240
F0.16215257728448226
aaa(lp2241
F2400.0
aF2000.0
aF0.00807
a(lp2242
F0.170637644
aa(lp2243
F27.319399999999998
aa(lp2244
F16.034657
aa(lp2245
F0.09851769644079178
aaa(lp2246
F2400.0
aF600.0
aF0.016003
a(lp2247
F0.33850139599999995
aa(lp2248
F27.319399999999998
aa(lp2249
F16.034657
aa(lp2250
F0.13819263621481429
aaa(lp2251
F2400.0
aF1900.0
aF0.005276
a(lp2252
F0.11154944800000001
aa(lp2253
F27.319399999999998
aa(lp2254
F16.034657
aa(lp2255
F0.07887737916538555
aaa(lp2256
F2400.0
aF700.0
aF0.002924
a(lp2257
F0.0229326054
aa(lp2258
F12.3188
aa(lp2259
F5.1794528
aa(lp2260
F0.00810790028799072
aaa(lp2261
F2400.0
aF100.0
aF0.005308
a(lp2262
F0.11222638399999998
aa(lp2263
F27.319399999999998
aa(lp2264
F16.034657
aa(lp2265
F0.07935605043599385
aaa(lp2266
F2400.0
aF1800.0
aF0.018625
a(lp2267
F0.39400830800000003
aa(lp2268
F27.319399999999998
aa(lp2269
F16.034657
aa(lp2270
F0.1489211476721825
aaa(lp2271
F2400.0
aF500.0
aF0.010799
a(lp2272
F0.22836442399999998
aa(lp2273
F27.319399999999998
aa(lp2274
F16.034657
aa(lp2275
F0.11418219293742786
aaa(lp2276
F2400.0
aF900.0
aF0.013411
a(lp2277
F0.28364142800000003
aa(lp2278
F27.319399999999998
aa(lp2279
F16.034657
aa(lp2280
F0.12684828418232547
aaa(lp2281
F2400.0
aF1400.0
aF0.007977
a(lp2282
F0.16867749199999998
aa(lp2283
F27.319399999999998
aa(lp2284
F16.034657
aa(lp2285
F0.09738603062041291
aaa(lp2286
F2400.0
aF800.0
aF0.003002
a(lp2287
F0.048564362
aa(lp2288
F47.978
aa(lp2289
F10.8899618
aa(lp2290
F0.011778585419310759
aaa(lp2291
F2400.0
aF300.0
aF0.002791
a(lp2292
F0.045159051
aa(lp2293
F47.978
aa(lp2294
F10.8899618
aa(lp2295
F0.011289762672439132
aaa(lp2296
F2400.0
aF1000.0
aF0.013353
a(lp2297
F0.28240531599999996
aa(lp2298
F27.319399999999998
aa(lp2299
F16.034657
aa(lp2300
F0.12629549432976617
aaa(lp2301
F2500.0
aF400.0
aF0.003541
a(lp2302
F0.0748610992
aa(lp2303
F27.319399999999998
aa(lp2304
F16.034657
aa(lp2305
F0.052934788561021004
aaa(lp2306
F2500.0
aF1300.0
aF0.014039
a(lp2307
F0.29692245599999995
aa(lp2308
F27.319399999999998
aa(lp2309
F16.034657
aa(lp2310
F0.10497792621308537
aaa(lp2311
F2500.0
aF500.0
aF0.008796
a(lp2312
F0.185982876
aa(lp2313
F27.319399999999998
aa(lp2314
F16.034657
aa(lp2315
F0.08317407544181059
aaa(lp2316
F2500.0
aF900.0
aF0.012267
a(lp2317
F0.259424084
aa(lp2318
F27.319399999999998
aa(lp2319
F16.034657
aa(lp2320
F0.09805309761552665
aaa(lp2321
F2500.0
aF1400.0
aF0.012568
a(lp2322
F0.265792232
aa(lp2323
F27.319399999999998
aa(lp2324
F16.034657
aa(lp2325
F0.1004600402150029
aaa(lp2326
F2500.0
aF200.0
aF0.005308
a(lp2327
F0.112215712
aa(lp2328
F27.319399999999998
aa(lp2329
F16.034657
aa(lp2330
F0.06478775607782691
aaa(lp2331
F2500.0
aF1900.0
aF0.007091
a(lp2332
F0.149921268
aa(lp2333
F27.319399999999998
aa(lp2334
F16.034657
aa(lp2335
F0.07496064928214002
aaa(lp2336
F2500.0
aF1000.0
aF0.006942
a(lp2337
F0.146773028
aa(lp2338
F27.319399999999998
aa(lp2339
F16.034657
aa(lp2340
F0.07338649181422967
aaa(lp2341
F2500.0
aF1800.0
aF0.010655
a(lp2342
F0.22532446799999997
aa(lp2343
F27.319399999999998
aa(lp2344
F16.034657
aa(lp2345
F0.09198833366030716
aaa(lp2346
F2500.0
aF1700.0
aF0.008747
a(lp2347
F0.184961952
aa(lp2348
F27.319399999999998
aa(lp2349
F16.034657
aa(lp2350
F0.08271747576419386
aaa(lp2351
F2500.0
aF800.0
aF0.00536
a(lp2352
F0.11332099999999999
aa(lp2353
F27.319399999999998
aa(lp2354
F16.034657
aa(lp2355
F0.06542592144402705
aaa(lp2356
F2500.0
aF700.0
aF0.010504
a(lp2357
F0.22211808399999997
aa(lp2358
F27.319399999999998
aa(lp2359
F16.034657
aa(lp2360
F0.09067932291763099
aaa(lp2361
F2500.0
aF1600.0
aF0.014075
a(lp2362
F0.297692128
aa(lp2363
F27.319399999999998
aa(lp2364
F16.034657
aa(lp2365
F0.10525005067932271
aaa(lp2366
F2500.0
aF1100.0
aF0.006986
a(lp2367
F0.1477083
aa(lp2368
F27.319399999999998
aa(lp2369
F16.034657
aa(lp2370
F0.0738541367399281
aaa(lp2371
F2500.0
aF600.0
aF0.003497
a(lp2372
F0.07393512840000001
aa(lp2373
F27.319399999999998
aa(lp2374
F16.034657
aa(lp2375
F0.05228003109409939
aaa(lp2376
F2500.0
aF300.0
aF0.005253
a(lp2377
F0.1110601
aa(lp2378
F27.319399999999998
aa(lp2379
F16.034657
aa(lp2380
F0.06412058125750265
aaa(lp2381
F2500.0
aF2000.0
aF0.008875
a(lp2382
F0.187661416
aa(lp2383
F27.319399999999998
aa(lp2384
F16.034657
aa(lp2385
F0.08392472266025071
aaa(lp2386
F2500.0
aF1200.0
aF0.005286
a(lp2387
F0.111747616
aa(lp2388
F27.319399999999998
aa(lp2389
F16.034657
aa(lp2390
F0.06451752790056359
aaa(lp2391
F2500.0
aF100.0
aF0.007019
a(lp2392
F0.14840335999999998
aa(lp2393
F27.319399999999998
aa(lp2394
F16.034657
aa(lp2395
F0.07420167591638345
aaa(lp2396
F2500.0
aF1500.0
aF0.019255
a(lp2397
F0.40734490399999995
aa(lp2398
F27.319399999999998
aa(lp2399
F16.034657
aa(lp2400
F0.12281910411658277
aaa(lp2401
F2600.0
aF800.0
aF0.003482
a(lp2402
F0.07361652319999999
aa(lp2403
F27.319399999999998
aa(lp2404
F16.034657
aa(lp2405
F0.04250252638138114
aaa(lp2406
F2600.0
aF2000.0
aF0.004609
a(lp2407
F0.09744124800000001
aa(lp2408
F27.319399999999998
aa(lp2409
F16.034657
aa(lp2410
F0.048720623723429474
aaa(lp2411
F2600.0
aF900.0
aF0.005929
a(lp2412
F0.125346228
aa(lp2413
F27.319399999999998
aa(lp2414
F16.034657
aa(lp2415
F0.05605654445290041
aaa(lp2416
F2600.0
aF1000.0
aF0.004648
a(lp2417
F0.09826336
aa(lp2418
F27.319399999999998
aa(lp2419
F16.034657
aa(lp2420
F0.0491316609122875
aaa(lp2421
F2600.0
aF200.0
aF0.003469
a(lp2422
F0.07333881199999999
aa(lp2423
F27.319399999999998
aa(lp2424
F16.034657
aa(lp2425
F0.042342184185514095
aaa(lp2426
F2600.0
aF1100.0
aF0.00457
a(lp2427
F0.09661748
aa(lp2428
F27.319399999999998
aa(lp2429
F16.034657
aa(lp2430
F0.04830876111017546
aaa(lp2431
F2600.0
aF1500.0
aF0.0023
a(lp2432
F0.04862903799999999
aa(lp2433
F27.319399999999998
aa(lp2434
F16.034657
aa(lp2435
F0.03438591537243119
aaa(lp2436
F2600.0
aF700.0
aF0.003467
a(lp2437
F0.0732965748
aa(lp2438
F27.319399999999998
aa(lp2439
F16.034657
aa(lp2440
F0.04231779994281366
aaa(lp2441
F2600.0
aF1800.0
aF0.011711
a(lp2442
F0.24766308
aa(lp2443
F27.319399999999998
aa(lp2444
F16.034657
aa(lp2445
F0.07831794705174543
aaa(lp2446
F2600.0
aF1600.0
aF0.004597
a(lp2447
F0.097194228
aa(lp2448
F27.319399999999998
aa(lp2449
F16.034657
aa(lp2450
F0.04859713100996806
aaa(lp2451
F2600.0
aF1400.0
aF0.005838
a(lp2452
F0.12343465199999999
aa(lp2453
F27.319399999999998
aa(lp2454
F16.034657
aa(lp2455
F0.055201655975160746
aaa(lp2456
F2600.0
aF1300.0
aF0.005836
a(lp2457
F0.12338184399999999
aa(lp2458
F27.319399999999998
aa(lp2459
F16.034657
aa(lp2460
F0.05517804596757663
aaa(lp2461
F2600.0
aF600.0
aF0.004588
a(lp2462
F0.097001856
aa(lp2463
F27.319399999999998
aa(lp2464
F16.034657
aa(lp2465
F0.04850093935585166
aaa(lp2466
F2600.0
aF1700.0
aF0.002298
a(lp2467
F0.0485730468
aa(lp2468
F27.319399999999998
aa(lp2469
F16.034657
aa(lp2470
F0.03434632440305658
aaa(lp2471
F2600.0
aF400.0
aF0.009245
a(lp2472
F0.19548574000000002
aa(lp2473
F27.319399999999998
aa(lp2474
F16.034657
aa(lp2475
F0.0691146594001591
aaa(lp2476
F2600.0
aF300.0
aF0.004591
a(lp2477
F0.097062852
aa(lp2478
F27.319399999999998
aa(lp2479
F16.034657
aa(lp2480
F0.048531408320797775
aaa(lp2481
F2600.0
aF1900.0
aF0.005724
a(lp2482
F0.121006956
aa(lp2483
F27.319399999999998
aa(lp2484
F16.034657
aa(lp2485
F0.05411593748240901
aaa(lp2486
F2600.0
aF1200.0
aF0.004656
a(lp2487
F0.09843107599999999
aa(lp2488
F27.319399999999998
aa(lp2489
F16.034657
aa(lp2490
F0.04921552016996264
aaa(lp2491
F2600.0
aF100.0
aF0.00231
a(lp2492
F0.04883302039999999
aa(lp2493
F27.319399999999998
aa(lp2494
F16.034657
aa(lp2495
F0.03453016281455968
aaa(lp2496
F2600.0
aF500.0
aF0.002296
a(lp2497
F0.0485427144
aa(lp2498
F27.319399999999998
aa(lp2499
F16.034657
aa(lp2500
F0.03432487820808691
aaa(lp2501
F2700.0
aF1400.0
aF0.006072
a(lp2502
F0.12836925600000001
aa(lp2503
F27.319399999999998
aa(lp2504
F16.034657
aa(lp2505
F0.045385400612972436
aaa(lp2506
F2700.0
aF1000.0
aF0.005265
a(lp2507
F0.11131494
aa(lp2508
F27.319399999999998
aa(lp2509
F16.034657
aa(lp2510
F0.04207309977646049
aaa(lp2511
F2700.0
aF800.0
aF0.004501
a(lp2512
F0.095153668
aa(lp2513
F27.319399999999998
aa(lp2514
F16.034657
aa(lp2515
F0.03884629596756941
aaa(lp2516
F2700.0
aF900.0
aF0.003762
a(lp2517
F0.07952838799999999
aa(lp2518
F27.319399999999998
aa(lp2519
F16.034657
aa(lp2520
F0.03556618146498158
aaa(lp2521
F2700.0
aF600.0
aF0.004473
a(lp2522
F0.094564316
aa(lp2523
F27.319399999999998
aa(lp2524
F16.034657
aa(lp2525
F0.0386057257514996
aaa(lp2526
F2700.0
aF1100.0
aF0.00532
a(lp2527
F0.11248232799999999
aa(lp2528
F27.319399999999998
aa(lp2529
F16.034657
aa(lp2530
F0.04251433380872856
aaa(lp2531
F2700.0
aF1300.0
aF0.002286
a(lp2532
F0.048330727999999996
aa(lp2533
F27.319399999999998
aa(lp2534
F16.034657
aa(lp2535
F0.027903762281097505
aaa(lp2536
F2700.0
aF400.0
aF0.004592
a(lp2537
F0.09706883199999998
aa(lp2538
F27.319399999999998
aa(lp2539
F16.034657
aa(lp2540
F0.0396282030680171
aaa(lp2541
F2700.0
aF1700.0
aF0.00228
a(lp2542
F0.048186830800000004
aa(lp2543
F27.319399999999998
aa(lp2544
F16.034657
aa(lp2545
F0.027820676785441437
aaa(lp2546
F2700.0
aF100.0
aF0.003011
a(lp2547
F0.06365410079999999
aa(lp2548
F27.319399999999998
aa(lp2549
F16.034657
aa(lp2550
F0.031827053951002125
aaa(lp2551
F2700.0
aF2000.0
aF0.003748
a(lp2552
F0.0792282748
aa(lp2553
F27.319399999999998
aa(lp2554
F16.034657
aa(lp2555
F0.035431957981460746
aaa(lp2556
F2700.0
aF1200.0
aF0.003035
a(lp2557
F0.0641599812
aa(lp2558
F27.319399999999998
aa(lp2559
F16.034657
aa(lp2560
F0.032079992369076396
aaa(lp2561
F2700.0
aF700.0
aF0.002276
a(lp2562
F0.048117655999999995
aa(lp2563
F27.319399999999998
aa(lp2564
F16.034657
aa(lp2565
F0.027780744776193456
aaa(lp2566
F2700.0
aF300.0
aF0.003788
a(lp2567
F0.0800826512
aa(lp2568
F27.319399999999998
aa(lp2569
F16.034657
aa(lp2570
F0.035814041425117044
aaa(lp2571
F2700.0
aF1800.0
aF0.003779
a(lp2572
F0.0798911348
aa(lp2573
F27.319399999999998
aa(lp2574
F16.034657
aa(lp2575
F0.035728398699074106
aaa(lp2576
F2700.0
aF200.0
aF0.001497
a(lp2577
F0.031644540799999996
aa(lp2578
F27.319399999999998
aa(lp2579
F16.034657
aa(lp2580
F0.02237606819439018
aaa(lp2581
F2700.0
aF1500.0
aF0.002997
a(lp2582
F0.0633515036
aa(lp2583
F27.319399999999998
aa(lp2584
F16.034657
aa(lp2585
F0.03167574830055321
aaa(lp2586
F2700.0
aF500.0
aF0.004461
a(lp2587
F0.09429926399999998
aa(lp2588
F27.319399999999998
aa(lp2589
F16.034657
aa(lp2590
F0.0384975206474391
aaa(lp2591
F2700.0
aF1900.0
aF0.004598
a(lp2592
F0.097211524
aa(lp2593
F27.319399999999998
aa(lp2594
F16.034657
aa(lp2595
F0.0396864370182056
aaa(lp2596
F2700.0
aF1600.0
aF0.004515
a(lp2597
F0.095453588
aa(lp2598
F27.319399999999998
aa(lp2599
F16.034657
aa(lp2600
F0.038968760924617554
aaa(lp2601
F2800.0
aF1500.0
aF0.002956
a(lp2602
F0.0624782212
aa(lp2603
F27.319399999999998
aa(lp2604
F16.034657
aa(lp2605
F0.025506627932362993
aaa(lp2606
F2800.0
aF200.0
aF0.001478
a(lp2607
F0.031249584799999997
aa(lp2608
F27.319399999999998
aa(lp2609
F16.034657
aa(lp2610
F0.018041957658746458
aaa(lp2611
F2800.0
aF400.0
aF0.00339
a(lp2612
F0.0716738972
aa(lp2613
F27.319399999999998
aa(lp2614
F16.034657
aa(lp2615
F0.027090183839907765
aaa(lp2616
F2800.0
aF900.0
aF0.001987
a(lp2617
F0.0420035844
aa(lp2618
F27.319399999999998
aa(lp2619
F16.034657
aa(lp2620
F0.02100179256349324
aaa(lp2621
F2800.0
aF600.0
aF0.001464
a(lp2622
F0.030938928399999996
aa(lp2623
F27.319399999999998
aa(lp2624
F16.034657
aa(lp2625
F0.017862595475462123
aaa(lp2626
F2800.0
aF1200.0
aF0.003883
a(lp2627
F0.08208405599999999
aa(lp2628
F27.319399999999998
aa(lp2629
F16.034657
aa(lp2630
F0.02902109777937423
aaa(lp2631
F2800.0
aF1000.0
aF0.003998
a(lp2632
F0.0845174744
aa(lp2633
F27.319399999999998
aa(lp2634
F16.034657
aa(lp2635
F0.02988143854636185
aaa(lp2636
F2800.0
aF1400.0
aF0.005395
a(lp2637
F0.114059116
aa(lp2638
F27.319399999999998
aa(lp2639
F16.034657
aa(lp2640
F0.034390111927703866
aaa(lp2641
F2800.0
aF800.0
aF0.003894
a(lp2642
F0.08231066120000001
aa(lp2643
F27.319399999999998
aa(lp2644
F16.034657
aa(lp2645
F0.02910121569969199
aaa(lp2646
F2800.0
aF100.0
aF0.002426
a(lp2647
F0.0512918308
aa(lp2648
F27.319399999999998
aa(lp2649
F16.034657
aa(lp2650
F0.022938400791685545
aaa(lp2651
F2800.0
aF1100.0
aF0.002939
a(lp2652
F0.0621385756
aa(lp2653
F27.319399999999998
aa(lp2654
F16.034657
aa(lp2655
F0.02536796028694463
aaa(lp2656
F2800.0
aF1300.0
aF0.003944
a(lp2657
F0.0833682564
aa(lp2658
F27.319399999999998
aa(lp2659
F16.034657
aa(lp2660
F0.029475125920002447
aaa(lp2661
F2800.0
aF2000.0
aF0.004407
a(lp2662
F0.093170424
aa(lp2663
F27.319399999999998
aa(lp2664
F16.034657
aa(lp2665
F0.031056820880444282
aaa(lp2666
F2800.0
aF500.0
aF0.002942
a(lp2667
F0.062198375599999994
aa(lp2668
F27.319399999999998
aa(lp2669
F16.034657
aa(lp2670
F0.025392379997156628
aaa(lp2671
F2800.0
aF1900.0
aF0.002445
a(lp2672
F0.05169088999999999
aa(lp2673
F27.319399999999998
aa(lp2674
F16.034657
aa(lp2675
F0.023116872421675035
aaa(lp2676
F2800.0
aF1800.0
aF0.001475
a(lp2677
F0.0311788184
aa(lp2678
F27.319399999999998
aa(lp2679
F16.034657
aa(lp2680
F0.01800110189516186
aaa(lp2681
F2800.0
aF300.0
aF0.001464
a(lp2682
F0.0309417712
aa(lp2683
F27.319399999999998
aa(lp2684
F16.034657
aa(lp2685
F0.01786424436017376
aaa(lp2686
F2800.0
aF700.0
aF0.002464
a(lp2687
F0.0520905748
aa(lp2688
F27.319399999999998
aa(lp2689
F16.034657
aa(lp2690
F0.023295611737835946
aaa(lp2691
F2800.0
aF1600.0
aF0.002448
a(lp2692
F0.0517442132
aa(lp2693
F27.319399999999998
aa(lp2694
F16.034657
aa(lp2695
F0.02314071594398064
aaa(lp2696
F2800.0
aF1700.0
aF0.002919
a(lp2697
F0.06170856759999999
aa(lp2698
F27.319399999999998
aa(lp2699
F16.034657
aa(lp2700
F0.02519241898032025
aaa(lp2701
F2900.0
aF1300.0
aF0.001571
a(lp2702
F0.033203333599999996
aa(lp2703
F27.319399999999998
aa(lp2704
F16.034657
aa(lp2705
F0.014848982402844985
aaa(lp2706
F2900.0
aF900.0
aF0.001286
a(lp2707
F0.027173672
aa(lp2708
F27.319399999999998
aa(lp2709
F16.034657
aa(lp2710
F0.013586836470643194
aaa(lp2711
F2900.0
aF1600.0
aF0.00127
a(lp2712
F0.026854891999999998
aa(lp2713
F27.319399999999998
aa(lp2714
F16.034657
aa(lp2715
F0.013427446488442988
aaa(lp2716
F2900.0
aF2000.0
aF0.00128
a(lp2717
F0.0270498768
aa(lp2718
F27.319399999999998
aa(lp2719
F16.034657
aa(lp2720
F0.013524932484859212
aaa(lp2721
F2900.0
aF1200.0
aF0.001918
a(lp2722
F0.0405507296
aa(lp2723
F27.319399999999998
aa(lp2724
F16.034657
aa(lp2725
F0.016554765394894606
aaa(lp2726
F2900.0
aF1700.0
aF0.002217
a(lp2727
F0.04685711799999999
aa(lp2728
F27.319399999999998
aa(lp2729
F16.034657
aa(lp2730
F0.01771032498403121
aaa(lp2731
F2900.0
aF1100.0
aF0.002572
a(lp2732
F0.05437255199999999
aa(lp2733
F27.319399999999998
aa(lp2734
F16.034657
aa(lp2735
F0.019223597582138464
aaa(lp2736
F2900.0
aF800.0
aF0.002228
a(lp2737
F0.047102123200000005
aa(lp2738
F27.319399999999998
aa(lp2739
F16.034657
aa(lp2740
F0.017802927107641597
aaa(lp2741
F2900.0
aF600.0
aF0.001267
a(lp2742
F0.026789001599999997
aa(lp2743
F27.319399999999998
aa(lp2744
F16.034657
aa(lp2745
F0.0133945017675164
aaa(lp2746
F2900.0
aF100.0
aF0.001594
a(lp2747
F0.033695183999999996
aa(lp2748
F27.319399999999998
aa(lp2749
F16.034657
aa(lp2750
F0.015068945651239172
aaa(lp2751
F2900.0
aF400.0
aF0.000325
a(lp2752
F0.006880001039999999
aa(lp2753
F27.319399999999998
aa(lp2754
F16.034657
aa(lp2755
F0.006880000883720873
aaa(lp2756
F2900.0
aF1000.0
aF0.001269
a(lp2757
F0.026814927199999998
aa(lp2758
F27.319399999999998
aa(lp2759
F16.034657
aa(lp2760
F0.013407462107349026
aaa(lp2761
F2900.0
aF1400.0
aF0.001602
a(lp2762
F0.0338593304
aa(lp2763
F27.319399999999998
aa(lp2764
F16.034657
aa(lp2765
F0.015142355991060308
aaa(lp2766
F2900.0
aF200.0
aF0.001593
a(lp2767
F0.0336633152
aa(lp2768
F27.319399999999998
aa(lp2769
F16.034657
aa(lp2770
F0.015054694582089667
aaa(lp2771
F2900.0
aF500.0
aF0.001563
a(lp2772
F0.0330319928
aa(lp2773
F27.319399999999998
aa(lp2774
F16.034657
aa(lp2775
F0.014772358381788604
aaa(lp2776
F2900.0
aF1500.0
aF0.002209
a(lp2777
F0.046698694
aa(lp2778
F27.319399999999998
aa(lp2779
F16.034657
aa(lp2780
F0.01765045355564553
aaa(lp2781
F2900.0
aF1800.0
aF0.001581
a(lp2782
F0.0334109408
aa(lp2783
F27.319399999999998
aa(lp2784
F16.034657
aa(lp2785
F0.01494182816659327
aaa(lp2786
F2900.0
aF300.0
aF0.00064
a(lp2787
F0.013532132799999999
aa(lp2788
F27.319399999999998
aa(lp2789
F16.034657
aa(lp2790
F0.009568659015766003
aaa(lp2791
F2900.0
aF700.0
aF0.000943
a(lp2792
F0.019935884799999998
aa(lp2793
F27.319399999999998
aa(lp2794
F16.034657
aa(lp2795
F0.011509986863589373
aaa(lp2796
F2900.0
aF1900.0
aF0.003542
a(lp2797
F0.0748706948
aa(lp2798
F27.319399999999998
aa(lp2799
F16.034657
aa(lp2800
F0.022574363030659357
aaa(lp2801
F3000.0
aF1900.0
aF0.00081
a(lp2802
F0.017113582399999997
aa(lp2803
F27.319399999999998
aa(lp2804
F16.034657
aa(lp2805
F0.008556790866674258
aaa(lp2806
F3000.0
aF800.0
aF0.000607
a(lp2807
F0.012838931199999999
aa(lp2808
F27.319399999999998
aa(lp2809
F16.034657
aa(lp2810
F0.007412558239096675
aaa(lp2811
F3000.0
aF900.0
aF0.000611
a(lp2812
F0.012917223199999998
aa(lp2813
F27.319399999999998
aa(lp2814
F16.034657
aa(lp2815
F0.0074577642397705216
aaa(lp2816
F3000.0
aF1600.0
aF0.000425
a(lp2817
F0.0068805098
aa(lp2818
F47.978
aa(lp2819
F10.8899618
aa(lp2820
F0.0012163135038303244
aaa(lp2821
F3000.0
aF700.0
aF0.000612
a(lp2822
F0.0129274168
aa(lp2823
F27.319399999999998
aa(lp2824
F16.034657
aa(lp2825
F0.007463649339029802
aaa(lp2826
F3000.0
aF600.0
aF0.000822
a(lp2827
F0.0173760676
aa(lp2828
F27.319399999999998
aa(lp2829
F16.034657
aa(lp2830
F0.008688034990721434
aaa(lp2831
F3000.0
aF1300.0
aF0.00121
a(lp2832
F0.025578382799999997
aa(lp2833
F27.319399999999998
aa(lp2834
F16.034657
aa(lp2835
F0.010442328276778124
aaa(lp2836
F3000.0
aF500.0
aF0.001405
a(lp2837
F0.029702485199999996
aa(lp2838
F27.319399999999998
aa(lp2839
F16.034657
aa(lp2840
F0.011226480709465454
aaa(lp2841
F3000.0
aF1500.0
aF0.001823
a(lp2842
F0.03852764039999999
aa(lp2843
F27.319399999999998
aa(lp2844
F16.034657
aa(lp2845
F0.012842544252600417
aaa(lp2846
F3000.0
aF1800.0
aF0.000609
a(lp2847
F0.012871453199999999
aa(lp2848
F27.319399999999998
aa(lp2849
F16.034657
aa(lp2850
F0.007431336660386205
aaa(lp2851
F3000.0
aF2000.0
aF0.001636
a(lp2852
F0.0345729744
aa(lp2853
F27.319399999999998
aa(lp2854
F16.034657
aa(lp2855
F0.012223390194213713
aaa(lp2856
F3000.0
aF100.0
aF0.000812
a(lp2857
F0.017160741599999998
aa(lp2858
F27.319399999999998
aa(lp2859
F16.034657
aa(lp2860
F0.008580370517873923
aaa(lp2861
F3000.0
aF1400.0
aF0.00082
a(lp2862
F0.0173315672
aa(lp2863
F27.319399999999998
aa(lp2864
F16.034657
aa(lp2865
F0.00866578322646026
aaa(lp2866
F3000.0
aF1100.0
aF0.000816
a(lp2867
F0.0172488868
aa(lp2868
F27.319399999999998
aa(lp2869
F16.034657
aa(lp2870
F0.008624441848606784
aaa(lp2871
F3000.0
aF1200.0
aF0.001218
a(lp2872
F0.025738628399999998
aa(lp2873
F27.319399999999998
aa(lp2874
F16.034657
aa(lp2875
F0.010507749300397303
aaa(lp2876
F3000.0
aF1000.0
aF0.000818
a(lp2877
F0.0172945464
aa(lp2878
F27.319399999999998
aa(lp2879
F16.034657
aa(lp2880
F0.008647271799128324
aaa(lp2881
F3000.0
aF400.0
aF0.000613
a(lp2882
F0.012965734799999998
aa(lp2883
F27.319399999999998
aa(lp2884
F16.034657
aa(lp2885
F0.007485767567858354
aaa(lp2886
F3000.0
aF300.0
aF0.001015
a(lp2887
F0.0214616036
aa(lp2888
F27.319399999999998
aa(lp2889
F16.034657
aa(lp2890
F0.009597919566239342
aaa(lp2891
F3000.0
aF1700.0
aF0.001635
a(lp2892
F0.034560655600000004
aa(lp2893
F27.319399999999998
aa(lp2894
F16.034657
aa(lp2895
F0.012219037415443166
aaa(lp2896
F3000.0
aF200.0
aF0.000616
a(lp2897
F0.0130264364
aa(lp2898
F27.319399999999998
aa(lp2899
F16.034657
aa(lp2900
F0.007520815716396727
aaa.