(lp0
(lp1
F100.0
aF800.0
aF0.998743
a(lp2
F146.0363104
aa(lp3
F401.764
aa(lp4
F38.278302
aa(lp5
F6.058606197468193
aaa(lp6
F100.0
aF500.0
aF0.999136
a(lp7
F151.0581304
aa(lp8
F401.764
aa(lp9
F38.278302
aa(lp10
F6.161788857142056
aaa(lp11
F100.0
aF600.0
aF0.999094
a(lp12
F150.44022159999997
aa(lp13
F401.764
aa(lp14
F38.278302
aa(lp15
F6.162272354902857
aaa(lp16
F100.0
aF100.0
aF0.999236
a(lp17
F152.6821696
aa(lp18
F401.764
aa(lp19
F38.278302
aa(lp20
F6.202290384688547
aaa(lp21
F100.0
aF1000.0
aF0.999618
a(lp22
F161.59148639999998
aa(lp23
F401.764
aa(lp24
F38.278302
aa(lp25
F6.387463997550201
aaa(lp26
F100.0
aF400.0
aF0.999266
a(lp27
F153.2034416
aa(lp28
F401.764
aa(lp29
F38.278302
aa(lp30
F6.2183343776287865
aaa(lp31
F100.0
aF900.0
aF0.999072
a(lp32
F150.117504
aa(lp33
F401.764
aa(lp34
F38.278302
aa(lp35
F6.1490531615851225
aaa(lp36
F100.0
aF200.0
aF0.999123
a(lp37
F150.8602752
aa(lp38
F401.764
aa(lp39
F38.278302
aa(lp40
F6.158845845123905
aaa(lp41
F100.0
aF700.0
aF0.998224
a(lp42
F141.2941152
aa(lp43
F401.764
aa(lp44
F38.278302
aa(lp45
F5.970767395904819
aaa(lp46
F100.0
aF300.0
aF0.999071
a(lp47
F150.1055256
aa(lp48
F401.764
aa(lp49
F38.278302
aa(lp50
F6.158903564758909
aaa(lp51
F200.0
aF700.0
aF0.993281
a(lp52
F60.1170872
aa(lp53
F190.20999999999998
aa(lp54
F15.425373200000001
aa(lp55
F1.914518010570807
aaa(lp56
F200.0
aF400.0
aF0.993258
a(lp57
F60.09026000000001
aa(lp58
F190.20999999999998
aa(lp59
F15.425373200000001
aa(lp60
F1.9136636912477594
aaa(lp61
F200.0
aF500.0
aF0.994879
a(lp62
F62.229683200000004
aa(lp63
F190.20999999999998
aa(lp64
F15.425373200000001
aa(lp65
F1.9475328737661914
aaa(lp66
F200.0
aF100.0
aF0.994666
a(lp67
F61.9133504
aa(lp68
F190.20999999999998
aa(lp69
F15.425373200000001
aa(lp70
F1.9385821210358873
aaa(lp71
F200.0
aF600.0
aF0.993876
a(lp72
F60.84328
aa(lp73
F190.20999999999998
aa(lp74
F15.425373200000001
aa(lp75
F1.9278933115709491
aaa(lp76
F200.0
aF1000.0
aF0.996027
a(lp77
F64.1615912
aa(lp78
F190.20999999999998
aa(lp79
F15.425373200000001
aa(lp80
F1.9791276413612133
aaa(lp81
F200.0
aF300.0
aF0.994526
a(lp82
F61.7138944
aa(lp83
F190.20999999999998
aa(lp84
F15.425373200000001
aa(lp85
F1.93613732240252
aaa(lp86
F200.0
aF900.0
aF0.996032
a(lp87
F64.17018399999999
aa(lp88
F190.20999999999998
aa(lp89
F15.425373200000001
aa(lp90
F1.9756365414721402
aaa(lp91
F200.0
aF800.0
aF0.995532
a(lp92
F63.272208799999994
aa(lp93
F190.20999999999998
aa(lp94
F15.425373200000001
aa(lp95
F1.9629316279483604
aaa(lp96
F200.0
aF200.0
aF0.995036
a(lp97
F62.4673376
aa(lp98
F190.20999999999998
aa(lp99
F15.425373200000001
aa(lp100
F1.947355548429716
aaa(lp101
F300.0
aF400.0
aF0.957338
a(lp102
F24.4874192
aa(lp103
F77.83200000000001
aa(lp104
F6.5614124
aa(lp105
F0.7542626606693453
aaa(lp106
F300.0
aF1000.0
aF0.962734
a(lp107
F25.2271728
aa(lp108
F77.83200000000001
aa(lp109
F6.5614124
aa(lp110
F0.7665741213477011
aaa(lp111
F300.0
aF200.0
aF0.958493
a(lp112
F397.01620199999996
aa(lp113
F3529.12
aa(lp114
F183.784812
aa(lp115
F15.191405109468974
aaa(lp116
F300.0
aF800.0
aF0.969166
a(lp117
F420.754318
aa(lp118
F3529.12
aa(lp119
F183.784812
aa(lp120
F15.669709429341694
aaa(lp121
F300.0
aF700.0
aF0.961538
a(lp122
F25.0556664
aa(lp123
F77.83200000000001
aa(lp124
F6.5614124
aa(lp125
F0.7659739003386474
aaa(lp126
F300.0
aF300.0
aF0.958321
a(lp127
F24.616090399999997
aa(lp128
F77.83200000000001
aa(lp129
F6.5614124
aa(lp130
F0.7589468054086532
aaa(lp131
F300.0
aF900.0
aF0.95784
a(lp132
F24.5526288
aa(lp133
F77.83200000000001
aa(lp134
F6.5614124
aa(lp135
F0.7559128927594768
aaa(lp136
F300.0
aF600.0
aF0.966002
a(lp137
F413.066522
aa(lp138
F3529.12
aa(lp139
F183.784812
aa(lp140
F15.534963469541859
aaa(lp141
F300.0
aF500.0
aF0.963212
a(lp142
F25.2972032
aa(lp143
F77.83200000000001
aa(lp144
F6.5614124
aa(lp145
F0.7679936058067149
aaa(lp146
F300.0
aF100.0
aF0.759181
a(lp147
F13.619361679999999
aa(lp148
F77.83200000000001
aa(lp149
F6.5614124
aa(lp150
F0.5640563141247512
aaa(lp151
F400.0
aF900.0
aF0.901578
a(lp152
F320.928384
aa(lp153
F3529.12
aa(lp154
F183.784812
aa(lp155
F9.34654800875703
aaa(lp156
F400.0
aF200.0
aF0.881119
a(lp157
F302.759902
aa(lp158
F3529.12
aa(lp159
F183.784812
aa(lp160
F9.042645320922412
aaa(lp161
F400.0
aF500.0
aF0.881037
a(lp162
F11.400965679999999
aa(lp163
F33.0878
aa(lp164
F2.97621058
aa(lp165
F0.3518414398333431
aaa(lp166
F400.0
aF300.0
aF0.889167
a(lp167
F11.691124480000001
aa(lp168
F33.0878
aa(lp169
F2.97621058
aa(lp170
F0.3557496180180662
aaa(lp171
F400.0
aF800.0
aF0.903219
a(lp172
F322.51142799999997
aa(lp173
F3529.12
aa(lp174
F183.784812
aa(lp175
F9.357006076732022
aaa(lp176
F400.0
aF100.0
aF0.499498
a(lp177
F130.41234599999999
aa(lp178
F3529.12
aa(lp179
F183.784812
aa(lp180
F5.946291378666202
aaa(lp181
F400.0
aF1000.0
aF0.900049
a(lp182
F319.46977
aa(lp183
F3529.12
aa(lp184
F183.784812
aa(lp185
F9.300123874443823
aaa(lp186
F400.0
aF400.0
aF0.890884
a(lp187
F311.09344600000003
aa(lp188
F3529.12
aa(lp189
F183.784812
aa(lp190
F9.197669804901675
aaa(lp191
F400.0
aF600.0
aF0.900764
a(lp192
F320.148822
aa(lp193
F3529.12
aa(lp194
F183.784812
aa(lp195
F9.319892887796511
aaa(lp196
F400.0
aF700.0
aF0.884115
a(lp197
F305.257886
aa(lp198
F3529.12
aa(lp199
F183.784812
aa(lp200
F9.09698819170389
aaa(lp201
F500.0
aF300.0
aF0.707188
a(lp202
F141.27359
aa(lp203
F1702.9199999999998
aa(lp204
F127.16401
aa(lp205
F4.471938447250812
aaa(lp206
F500.0
aF600.0
aF0.683507
a(lp207
F134.49204
aa(lp208
F1702.9199999999998
aa(lp209
F127.16401
aa(lp210
F4.356625005666658
aaa(lp211
F500.0
aF800.0
aF0.690523
a(lp212
F136.464842
aa(lp213
F1702.9199999999998
aa(lp214
F127.16401
aa(lp215
F4.39523681273262
aaa(lp216
F500.0
aF1000.0
aF0.68099
a(lp217
F133.791414
aa(lp218
F1702.9199999999998
aa(lp219
F127.16401
aa(lp220
F4.345343927930216
aaa(lp221
F500.0
aF700.0
aF0.700573
a(lp222
F139.343062
aa(lp223
F1702.9199999999998
aa(lp224
F127.16401
aa(lp225
F4.4353380335663255
aaa(lp226
F500.0
aF100.0
aF0.297199
a(lp227
F73.7771
aa(lp228
F3529.12
aa(lp229
F183.784812
aa(lp230
F3.2229682604704624
aaa(lp231
F500.0
aF200.0
aF0.502669
a(lp232
F90.99931600000001
aa(lp233
F1702.9199999999998
aa(lp234
F127.16401
aa(lp235
F3.577552816102091
aaa(lp236
F500.0
aF900.0
aF0.685713
a(lp237
F135.108578
aa(lp238
F1702.9199999999998
aa(lp239
F127.16401
aa(lp240
F4.351554534646211
aaa(lp241
F500.0
aF500.0
aF0.698471
a(lp242
F138.735678
aa(lp243
F1702.9199999999998
aa(lp244
F127.16401
aa(lp245
F4.420486554215497
aaa(lp246
F500.0
aF400.0
aF0.655552
a(lp247
F183.11472999999998
aa(lp248
F3529.12
aa(lp249
F183.784812
aa(lp250
F5.07868749186244
aaa(lp251
F600.0
aF200.0
aF0.251512
a(lp252
F0.55380182
aa(lp253
F2.3414
aa(lp254
F0.294280676
aa(lp255
F0.03812528113703265
aaa(lp256
F600.0
aF100.0
aF0.173481
a(lp257
F0.36643646
aa(lp258
F2.3414
aa(lp259
F0.294280676
aa(lp260
F0.030969537721229654
aaa(lp261
F600.0
aF800.0
aF0.481984
a(lp262
F86.645232
aa(lp263
F1702.9199999999998
aa(lp264
F127.16401
aa(lp265
F2.6065347064637368
aaa(lp266
F600.0
aF600.0
aF0.481027
a(lp267
F86.446604
aa(lp268
F1702.9199999999998
aa(lp269
F127.16401
aa(lp270
F2.602915192625376
aaa(lp271
F600.0
aF400.0
aF0.474822
a(lp272
F85.16389400000001
aa(lp273
F1702.9199999999998
aa(lp274
F127.16401
aa(lp275
F2.5819107900932594
aaa(lp276
F600.0
aF500.0
aF0.480327
a(lp277
F86.30152
aa(lp278
F1702.9199999999998
aa(lp279
F127.16401
aa(lp280
F2.602088713322434
aaa(lp281
F600.0
aF300.0
aF0.483128
a(lp282
F86.88273
aa(lp283
F1702.9199999999998
aa(lp284
F127.16401
aa(lp285
F2.6136793590645357
aaa(lp286
F600.0
aF1000.0
aF0.468768
a(lp287
F83.91996200000001
aa(lp288
F1702.9199999999998
aa(lp289
F127.16401
aa(lp290
F2.5691125603990184
aaa(lp291
F600.0
aF700.0
aF0.475399
a(lp292
F85.282804
aa(lp293
F1702.9199999999998
aa(lp294
F127.16401
aa(lp295
F2.5855146961485254
aaa(lp296
F600.0
aF900.0
aF0.471473
a(lp297
F84.474906
aa(lp298
F1702.9199999999998
aa(lp299
F127.16401
aa(lp300
F2.5752622514998347
aaa(lp301
F700.0
aF100.0
aF0.120502
a(lp302
F0.20470276000000004
aa(lp303
F1.56584
aa(lp304
F0.228597782
aa(lp305
F0.017749974222203504
aaa(lp306
F700.0
aF1000.0
aF0.330786
a(lp307
F0.6424843
aa(lp308
F1.56584
aa(lp309
F0.228597782
aa(lp310
F0.03131277286419145
aaa(lp311
F700.0
aF600.0
aF0.334954
a(lp312
F0.6525521666666667
aa(lp313
F1.56584
aa(lp314
F0.228597782
aa(lp315
F0.03161625879195703
aaa(lp316
F700.0
aF200.0
aF0.167621
a(lp317
F0.2925961866666667
aa(lp318
F1.56584
aa(lp319
F0.228597782
aa(lp320
F0.021171513534306737
aaa(lp321
F700.0
aF400.0
aF0.32497
a(lp322
F0.6285469133333333
aa(lp323
F1.56584
aa(lp324
F0.228597782
aa(lp325
F0.03104171510868703
aaa(lp326
F700.0
aF800.0
aF0.350283
a(lp327
F0.6901541
aa(lp328
F1.56584
aa(lp329
F0.228597782
aa(lp330
F0.03253417546724265
aaa(lp331
F700.0
aF700.0
aF0.329065
a(lp332
F0.6383476733333333
aa(lp333
F1.56584
aa(lp334
F0.228597782
aa(lp335
F0.031222605187054248
aaa(lp336
F700.0
aF900.0
aF0.329477
a(lp337
F0.6393369799999999
aa(lp338
F1.56584
aa(lp339
F0.228597782
aa(lp340
F0.031270994128389615
aaa(lp341
F700.0
aF300.0
aF0.269044
a(lp342
F0.5005957666666666
aa(lp343
F1.56584
aa(lp344
F0.228597782
aa(lp345
F0.027725435518070166
aaa(lp346
F700.0
aF500.0
aF0.349814
a(lp347
F0.6889901466666667
aa(lp348
F1.56584
aa(lp349
F0.228597782
aa(lp350
F0.03251546044576334
aaa(lp351
F800.0
aF300.0
aF0.155104
a(lp352
F0.22001554666666667
aa(lp353
F1.01798
aa(lp354
F0.163028324
aa(lp355
F0.014291546002989163
aaa(lp356
F800.0
aF100.0
aF0.091405
a(lp357
F0.12412245933333334
aa(lp358
F1.01798
aa(lp359
F0.163028324
aa(lp360
F0.010722547485452222
aaa(lp361
F800.0
aF800.0
aF0.26263
a(lp362
F0.40359572000000005
aa(lp363
F1.01798
aa(lp364
F0.163028324
aa(lp365
F0.019328729509319655
aaa(lp366
F800.0
aF400.0
aF0.259669
a(lp367
F0.39811788666666664
aa(lp368
F1.01798
aa(lp369
F0.163028324
aa(lp370
F0.019243754842661154
aaa(lp371
F800.0
aF200.0
aF0.093722
a(lp372
F0.12746612266666668
aa(lp373
F1.01798
aa(lp374
F0.163028324
aa(lp375
F0.010850638506558036
aaa(lp376
F800.0
aF600.0
aF0.253559
a(lp377
F0.3868980266666667
aa(lp378
F1.01798
aa(lp379
F0.163028324
aa(lp380
F0.018946478699513297
aaa(lp381
F800.0
aF1000.0
aF0.241519
a(lp382
F0.36510844000000003
aa(lp383
F1.01798
aa(lp384
F0.163028324
aa(lp385
F0.018370600401486914
aaa(lp386
F800.0
aF900.0
aF0.245334
a(lp387
F0.3719676533333333
aa(lp388
F1.01798
aa(lp389
F0.163028324
aa(lp390
F0.018575173646563848
aaa(lp391
F800.0
aF500.0
aF0.230872
a(lp392
F0.3461825066666666
aa(lp393
F1.01798
aa(lp394
F0.163028324
aa(lp395
F0.017924653550037972
aaa(lp396
F800.0
aF700.0
aF0.243666
a(lp397
F0.3689629333333333
aa(lp398
F1.01798
aa(lp399
F0.163028324
aa(lp400
F0.018541081629721606
aaa(lp401
F900.0
aF200.0
aF0.066104
a(lp402
F0.06848581966666667
aa(lp403
F0.59984
aa(lp404
F0.115804954
aa(lp405
F0.004448632467774038
aaa(lp406
F900.0
aF300.0
aF0.091039
a(lp407
F0.09632576333333333
aa(lp408
F0.59984
aa(lp409
F0.115804954
aa(lp410
F0.00526283748667115
aaa(lp411
F900.0
aF1000.0
aF0.165377
a(lp412
F0.18674006666666668
aa(lp413
F0.59984
aa(lp414
F0.115804954
aa(lp415
F0.007358589917006292
aaa(lp416
F900.0
aF900.0
aF0.174115
a(lp417
F0.19816317
aa(lp418
F0.59984
aa(lp419
F0.115804954
aa(lp420
F0.007571425487390806
aaa(lp421
F900.0
aF700.0
aF0.167742
a(lp422
F0.18981455333333333
aa(lp423
F0.59984
aa(lp424
F0.115804954
aa(lp425
F0.007411015365281902
aaa(lp426
F900.0
aF500.0
aF0.185326
a(lp427
F0.21308549333333335
aa(lp428
F0.59984
aa(lp429
F0.115804954
aa(lp430
F0.007838475886434952
aaa(lp431
F900.0
aF800.0
aF0.173317
a(lp432
F0.19711352666666668
aa(lp433
F0.59984
aa(lp434
F0.115804954
aa(lp435
F0.007531319084699277
aaa(lp436
F900.0
aF400.0
aF0.14659
a(lp437
F0.16277215
aa(lp438
F0.59984
aa(lp439
F0.115804954
aa(lp440
F0.006860026917666658
aaa(lp441
F900.0
aF100.0
aF0.060659
a(lp442
F0.06255917966666667
aa(lp443
F0.59984
aa(lp444
F0.115804954
aa(lp445
F0.0042566131476666855
aaa(lp446
F900.0
aF600.0
aF0.182546
a(lp447
F0.20935726999999998
aa(lp448
F0.59984
aa(lp449
F0.115804954
aa(lp450
F0.0077699766051413845
aaa(lp451
F1000.0
aF700.0
aF0.117491
a(lp452
F0.06240862933333333
aa(lp453
F0.115092
aa(lp454
F0.0285439154
aa(lp455
F0.0021368303596162653
aaa(lp456
F1000.0
aF500.0
aF0.118877
a(lp457
F0.06330955466666667
aa(lp458
F0.115092
aa(lp459
F0.0285439154
aa(lp460
F0.0021538350787993652
aaa(lp461
F1000.0
aF1000.0
aF0.119031
a(lp462
F0.06341001866666666
aa(lp463
F0.115092
aa(lp464
F0.0285439154
aa(lp465
F0.002154759677860465
aaa(lp466
F1000.0
aF200.0
aF0.046143
a(lp467
F0.0214452
aa(lp468
F0.115092
aa(lp469
F0.0285439154
aa(lp470
F0.0012528419944714143
aaa(lp471
F1000.0
aF800.0
aF0.118225
a(lp472
F0.06288509733333333
aa(lp473
F0.115092
aa(lp474
F0.0285439154
aa(lp475
F0.0021468620482514057
aaa(lp476
F1000.0
aF400.0
aF0.08479
a(lp477
F0.04235618666666667
aa(lp478
F0.115092
aa(lp479
F0.0285439154
aa(lp480
F0.0017557209016368302
aaa(lp481
F1000.0
aF300.0
aF0.061739
a(lp482
F0.029540056133333333
aa(lp483
F0.115092
aa(lp484
F0.0285439154
aa(lp485
F0.0014696729244593467
aaa(lp486
F1000.0
aF600.0
aF0.117378
a(lp487
F0.06233484533333334
aa(lp488
F0.115092
aa(lp489
F0.0285439154
aa(lp490
F0.002134303944198722
aaa(lp491
F1000.0
aF100.0
aF0.041157
a(lp492
F0.01895144186666667
aa(lp493
F0.115092
aa(lp494
F0.0285439154
aa(lp495
F0.0011775852256017633
aaa(lp496
F1000.0
aF900.0
aF0.121279
a(lp497
F0.06488103733333334
aa(lp498
F0.115092
aa(lp499
F0.0285439154
aa(lp500
F0.002174817861492467
aaa(lp501
F1100.0
aF700.0
aF0.111036
a(lp502
F0.058267832
aa(lp503
F0.115092
aa(lp504
F0.0285439154
aa(lp505
F0.0016526969156839106
aaa(lp506
F1100.0
aF900.0
aF0.111871
a(lp507
F0.05879827333333334
aa(lp508
F0.115092
aa(lp509
F0.0285439154
aa(lp510
F0.0016643984074333484
aaa(lp511
F1100.0
aF200.0
aF0.041382
a(lp512
F0.019062544133333335
aa(lp513
F0.115092
aa(lp514
F0.0285439154
aa(lp515
F0.0009483970973290787
aaa(lp516
F1100.0
aF800.0
aF0.112951
a(lp517
F0.059486188
aa(lp518
F0.115092
aa(lp519
F0.0285439154
aa(lp520
F0.001670538343036626
aaa(lp521
F1100.0
aF500.0
aF0.09887
a(lp522
F0.05071110533333333
aa(lp523
F0.115092
aa(lp524
F0.0285439154
aa(lp525
F0.0015445205092699662
aaa(lp526
F1100.0
aF400.0
aF0.070683
a(lp527
F0.03438889466666667
aa(lp528
F0.115092
aa(lp529
F0.0285439154
aa(lp530
F0.0012719186235325313
aaa(lp531
F1100.0
aF600.0
aF0.110129
a(lp532
F0.057693138666666664
aa(lp533
F0.115092
aa(lp534
F0.0285439154
aa(lp535
F0.0016490487811664841
aaa(lp536
F1100.0
aF100.0
aF0.040675
a(lp537
F0.018712524000000005
aa(lp538
F0.115092
aa(lp539
F0.0285439154
aa(lp540
F0.000936797852355447
aaa(lp541
F1100.0
aF1000.0
aF0.109641
a(lp542
F0.05738484666666667
aa(lp543
F0.115092
aa(lp544
F0.0285439154
aa(lp545
F0.0016422505376599652
aaa(lp546
F1100.0
aF300.0
aF0.053148
a(lp547
F0.025025122400000002
aa(lp548
F0.115092
aa(lp549
F0.0285439154
aa(lp550
F0.0010870219501003648
aaa(lp551
F1200.0
aF100.0
aF0.026868
a(lp552
F0.012047510400000001
aa(lp553
F0.115092
aa(lp554
F0.0285439154
aa(lp555
F0.0006084911961747862
aaa(lp556
F1200.0
aF700.0
aF0.081912
a(lp557
F0.04069822399999999
aa(lp558
F0.115092
aa(lp559
F0.0285439154
aa(lp560
F0.0011189110619010093
aaa(lp561
F1200.0
aF200.0
aF0.032481
a(lp562
F4.246809239999999
aa(lp563
F621.92
aa(lp564
F101.24287199999999
aa(lp565
F0.6261578395261054
aaa(lp566
F1200.0
aF800.0
aF0.079899
a(lp567
F0.039548775999999994
aa(lp568
F0.115092
aa(lp569
F0.0285439154
aa(lp570
F0.0011024118577011043
aaa(lp571
F1200.0
aF1000.0
aF0.081897
a(lp572
F0.040689545333333334
aa(lp573
F0.115092
aa(lp574
F0.0285439154
aa(lp575
F0.0011186719141712442
aaa(lp576
F1200.0
aF300.0
aF0.035176
a(lp577
F0.0160179544
aa(lp578
F0.115092
aa(lp579
F0.0285439154
aa(lp580
F0.0007024337734224092
aaa(lp581
F1200.0
aF600.0
aF0.078824
a(lp582
F0.03893847866666667
aa(lp583
F0.115092
aa(lp584
F0.0285439154
aa(lp585
F0.0010913516561280024
aaa(lp586
F1200.0
aF500.0
aF0.057946
a(lp587
F0.0275292612
aa(lp588
F0.115092
aa(lp589
F0.0285439154
aa(lp590
F0.0009196881182468569
aaa(lp591
F1200.0
aF900.0
aF0.079881
a(lp592
F0.03953844133333334
aa(lp593
F0.115092
aa(lp594
F0.0285439154
aa(lp595
F0.0010999885825670093
aaa(lp596
F1200.0
aF400.0
aF0.045663
a(lp597
F0.02120280146666667
aa(lp598
F0.115092
aa(lp599
F0.0285439154
aa(lp600
F0.0008071768434075233
aaa(lp601
F1300.0
aF900.0
aF0.05911
a(lp602
F0.031317352
aa(lp603
F0.1449
aa(lp604
F0.046468142
aa(lp605
F0.000794948500134862
aaa(lp606
F1300.0
aF200.0
aF0.021136
a(lp607
F0.010516903333333332
aa(lp608
F0.1449
aa(lp609
F0.046468142
aa(lp610
F0.00046119679424538743
aaa(lp611
F1300.0
aF1000.0
aF0.059193
a(lp612
F0.03136602
aa(lp613
F0.1449
aa(lp614
F0.046468142
aa(lp615
F0.0007972120728304776
aaa(lp616
F1300.0
aF500.0
aF0.037183
a(lp617
F0.018997110666666667
aa(lp618
F0.1449
aa(lp619
F0.046468142
aa(lp620
F0.0006183033532354665
aaa(lp621
F1300.0
aF100.0
aF0.019317
a(lp622
F0.0095826924
aa(lp623
F0.1449
aa(lp624
F0.046468142
aa(lp625
F0.00043968407526819123
aaa(lp626
F1300.0
aF600.0
aF0.052389
a(lp627
F0.027448374799999998
aa(lp628
F0.1449
aa(lp629
F0.046468142
aa(lp630
F0.0007440250957535715
aaa(lp631
F1300.0
aF300.0
aF0.025917
a(lp632
F0.012997710933333332
aa(lp633
F0.1449
aa(lp634
F0.046468142
aa(lp635
F0.0005149880278220067
aaa(lp636
F1300.0
aF400.0
aF0.030527
a(lp637
F0.015426256400000001
aa(lp638
F0.1449
aa(lp639
F0.046468142
aa(lp640
F0.0005581022445554021
aaa(lp641
F1300.0
aF700.0
aF0.058712
a(lp642
F0.03108618666666667
aa(lp643
F0.1449
aa(lp644
F0.046468142
aa(lp645
F0.000791892371474811
aaa(lp646
F1300.0
aF800.0
aF0.060247
a(lp647
F0.031980150666666665
aa(lp648
F0.1449
aa(lp649
F0.046468142
aa(lp650
F0.0008027715670101925
aaa(lp651
F1400.0
aF400.0
aF0.017884
a(lp652
F0.008851083866666666
aa(lp653
F0.1449
aa(lp654
F0.046468142
aa(lp655
F0.0003445279555823849
aaa(lp656
F1400.0
aF600.0
aF0.029812
a(lp657
F0.015046937333333333
aa(lp658
F0.1449
aa(lp659
F0.046468142
aa(lp660
F0.0004488125076490429
aaa(lp661
F1400.0
aF900.0
aF0.041281
a(lp662
F0.021234562933333333
aa(lp663
F0.1449
aa(lp664
F0.046468142
aa(lp665
F0.0005337069701208292
aaa(lp666
F1400.0
aF100.0
aF0.012383
a(lp667
F0.006073671333333334
aa(lp668
F0.1449
aa(lp669
F0.046468142
aa(lp670
F0.0002844257698904545
aaa(lp671
F1400.0
aF700.0
aF0.038319
a(lp672
F0.01961449813333333
aa(lp673
F0.1449
aa(lp674
F0.046468142
aa(lp675
F0.0005121087259557291
aaa(lp676
F1400.0
aF800.0
aF0.038667
a(lp677
F0.019803907733333334
aa(lp678
F0.1449
aa(lp679
F0.046468142
aa(lp680
F0.0005151262486894731
aaa(lp681
F1400.0
aF300.0
aF0.016411
a(lp682
F0.008102234533333334
aa(lp683
F0.1449
aa(lp684
F0.046468142
aa(lp685
F0.0003294026850055853
aaa(lp686
F1400.0
aF500.0
aF0.022021
a(lp687
F0.010973085333333332
aa(lp688
F0.1449
aa(lp689
F0.046468142
aa(lp690
F0.0003824976758099322
aaa(lp691
F1400.0
aF1000.0
aF0.03992
a(lp692
F0.020487952266666665
aa(lp693
F0.1449
aa(lp694
F0.046468142
aa(lp695
F0.0005244707437661958
aaa(lp696
F1400.0
aF200.0
aF0.014235
a(lp697
F0.007002889733333333
aa(lp698
F0.1449
aa(lp699
F0.046468142
aa(lp700
F0.00030534044026663454
aaa(lp701
F1500.0
aF400.0
aF0.010036
a(lp702
F0.004903458933333333
aa(lp703
F0.1449
aa(lp704
F0.046468142
aa(lp705
F0.000209274577699039
aaa(lp706
F1500.0
aF200.0
aF0.007974
a(lp707
F0.0038827005333333334
aa(lp708
F0.1449
aa(lp709
F0.046468142
aa(lp710
F0.00018594758052263607
aaa(lp711
F1500.0
aF500.0
aF0.012582
a(lp712
F0.006173114133333334
aa(lp713
F0.1449
aa(lp714
F0.046468142
aa(lp715
F0.00023399128872673871
aaa(lp716
F1500.0
aF600.0
aF0.021469
a(lp717
F0.45422883999999997
aa(lp718
F27.319399999999998
aa(lp719
F16.034657
aa(lp720
F0.11016668679777931
aaa(lp721
F1500.0
aF1000.0
aF0.028996
a(lp722
F0.613712956
aa(lp723
F27.319399999999998
aa(lp724
F16.034657
aa(lp725
F0.12796796542885255
aaa(lp726
F1500.0
aF800.0
aF0.032744
a(lp727
F0.6931812679999999
aa(lp728
F27.319399999999998
aa(lp729
F16.034657
aa(lp730
F0.13594406390865327
aaa(lp731
F1500.0
aF300.0
aF0.008833
a(lp732
F0.186775272
aa(lp733
F27.319399999999998
aa(lp734
F16.034657
aa(lp735
F0.07059440622598932
aaa(lp736
F1500.0
aF100.0
aF0.007577
a(lp737
F0.16021165199999998
aa(lp738
F27.319399999999998
aa(lp739
F16.034657
aa(lp740
F0.06540614460431068
aaa(lp741
F1500.0
aF900.0
aF0.023615
a(lp742
F0.011798239466666667
aa(lp743
F0.1449
aa(lp744
F0.046468142
aa(lp745
F0.00032339130531842627
aaa(lp746
F1500.0
aF700.0
aF0.025188
a(lp747
F0.532998688
aa(lp748
F27.319399999999998
aa(lp749
F16.034657
aa(lp750
F0.13324966977820246
aaa(lp751
F1600.0
aF100.0
aF0.012687
a(lp752
F0.268303372
aa(lp753
F27.319399999999998
aa(lp754
F16.034657
aa(lp755
F0.06927563957409559
aaa(lp756
F1600.0
aF900.0
aF0.025251
a(lp757
F0.534338944
aa(lp758
F27.319399999999998
aa(lp759
F16.034657
aa(lp760
F0.09755648939973188
aaa(lp761
F1600.0
aF300.0
aF0.008433
a(lp762
F0.178304832
aa(lp763
F27.319399999999998
aa(lp764
F16.034657
aa(lp765
F0.05638494540921361
aaa(lp766
F1600.0
aF500.0
aF0.010923
a(lp767
F0.23099396799999997
aa(lp768
F27.319399999999998
aa(lp769
F16.034657
aa(lp770
F0.0640662132734564
aaa(lp771
F1600.0
aF1000.0
aF0.02279
a(lp772
F0.482204384
aa(lp773
F27.319399999999998
aa(lp774
F16.034657
aa(lp775
F0.09280027732717182
aaa(lp776
F1600.0
aF800.0
aF0.02346
a(lp777
F0.49639197999999995
aa(lp778
F27.319399999999998
aa(lp779
F16.034657
aa(lp780
F0.09380923809518975
aaa(lp781
F1600.0
aF200.0
aF0.006788
a(lp782
F0.143526256
aa(lp783
F27.319399999999998
aa(lp784
F16.034657
aa(lp785
F0.050744209411518075
aaa(lp786
F1600.0
aF700.0
aF0.018571
a(lp787
F0.392859412
aa(lp788
F27.319399999999998
aa(lp789
F16.034657
aa(lp790
F0.08375790350766905
aaa(lp791
F1600.0
aF400.0
aF0.010947
a(lp792
F0.23148745599999998
aa(lp793
F27.319399999999998
aa(lp794
F16.034657
aa(lp795
F0.06420307520360688
aaa(lp796
F1600.0
aF600.0
aF0.010795
a(lp797
F1.4108843999999998
aa(lp798
F621.92
aa(lp799
F101.24287199999999
aa(lp800
F0.15873690237622756
aaa(lp801
F1700.0
aF900.0
aF0.019632
a(lp802
F0.41531191999999995
aa(lp803
F27.319399999999998
aa(lp804
F16.034657
aa(lp805
F0.07020052750798955
aaa(lp806
F1700.0
aF700.0
aF0.010795
a(lp807
F0.22827941599999996
aa(lp808
F27.319399999999998
aa(lp809
F16.034657
aa(lp810
F0.052370889898874166
aaa(lp811
F1700.0
aF500.0
aF0.012996
a(lp812
F0.274836476
aa(lp813
F27.319399999999998
aa(lp814
F16.034657
aa(lp815
F0.05730736788930372
aaa(lp816
F1700.0
aF300.0
aF0.007906
a(lp817
F0.16715525999999997
aa(lp818
F27.319399999999998
aa(lp819
F16.034657
aa(lp820
F0.04467412387501292
aaa(lp821
F1700.0
aF800.0
aF0.023583
a(lp822
F0.49898702399999995
aa(lp823
F27.319399999999998
aa(lp824
F16.034657
aa(lp825
F0.07699537657807773
aaa(lp826
F1700.0
aF400.0
aF0.007744
a(lp827
F0.163742888
aa(lp828
F27.319399999999998
aa(lp829
F16.034657
aa(lp830
F0.049370340861695484
aaa(lp831
F1700.0
aF1000.0
aF0.019138
a(lp832
F0.404852348
aa(lp833
F27.319399999999998
aa(lp834
F16.034657
aa(lp835
F0.0694315960467567
aaa(lp836
F1700.0
aF100.0
aF0.006777
a(lp837
F0.14327555599999997
aa(lp838
F27.319399999999998
aa(lp839
F16.034657
aa(lp840
F0.04136009365559996
aaa(lp841
F1700.0
aF600.0
aF0.00962
a(lp842
F0.20341843999999998
aa(lp843
F27.319399999999998
aa(lp844
F16.034657
aa(lp845
F0.04933622129024476
aaa(lp846
F1700.0
aF200.0
aF0.004515
a(lp847
F0.09544917199999998
aa(lp848
F27.319399999999998
aa(lp849
F16.034657
aa(lp850
F0.033746359969632274
aaa(lp851
F1800.0
aF600.0
aF0.006838
a(lp852
F0.144567144
aa(lp853
F27.319399999999998
aa(lp854
F16.034657
aa(lp855
F0.03407480544918782
aaa(lp856
F1800.0
aF400.0
aF0.005289
a(lp857
F0.11181081999999999
aa(lp858
F27.319399999999998
aa(lp859
F16.034657
aa(lp860
F0.029882698994568746
aaa(lp861
F1800.0
aF500.0
aF0.007186
a(lp862
F0.1519334
aa(lp863
F27.319399999999998
aa(lp864
F16.034657
aa(lp865
F0.03485590924936545
aaa(lp866
F1800.0
aF1000.0
aF0.013609
a(lp867
F0.287807924
aa(lp868
F27.319399999999998
aa(lp869
F16.034657
aa(lp870
F0.047967991861240136
aaa(lp871
F1800.0
aF700.0
aF0.008327
a(lp872
F0.17607548799999997
aa(lp873
F27.319399999999998
aa(lp874
F16.034657
aa(lp875
F0.03753942729451262
aaa(lp876
F1800.0
aF200.0
aF0.004925
a(lp877
F0.104110328
aa(lp878
F27.319399999999998
aa(lp879
F16.034657
aa(lp880
F0.02887500134303027
aaa(lp881
F1800.0
aF800.0
aF0.014379
a(lp882
F0.304111796
aa(lp883
F27.319399999999998
aa(lp884
F16.034657
aa(lp885
F0.04933344198006054
aaa(lp886
F1800.0
aF900.0
aF0.018924
a(lp887
F0.400331376
aa(lp888
F27.319399999999998
aa(lp889
F16.034657
aa(lp890
F0.05661540518268857
aaa(lp891
F1800.0
aF100.0
aF0.005278
a(lp892
F0.11159425199999999
aa(lp893
F27.319399999999998
aa(lp894
F16.034657
aa(lp895
F0.02982483351839537
aaa(lp896
F1800.0
aF300.0
aF0.00603
a(lp897
F0.127494612
aa(lp898
F27.319399999999998
aa(lp899
F16.034657
aa(lp900
F0.031873651940121324
aaa(lp901
F1900.0
aF300.0
aF0.005324
a(lp902
F0.112564944
aa(lp903
F27.319399999999998
aa(lp904
F16.034657
aa(lp905
F0.02456368643994626
aaa(lp906
F1900.0
aF600.0
aF0.006978
a(lp907
F0.14754352799999998
aa(lp908
F27.319399999999998
aa(lp909
F16.034657
aa(lp910
F0.03145639966684045
aaa(lp911
F1900.0
aF500.0
aF0.007853
a(lp912
F0.16603746
aa(lp913
F27.319399999999998
aa(lp914
F16.034657
aa(lp915
F0.029821214971895427
aaa(lp916
F1900.0
aF800.0
aF0.007633
a(lp917
F0.161393116
aa(lp918
F27.319399999999998
aa(lp919
F16.034657
aa(lp920
F0.029466222696504552
aaa(lp921
F1900.0
aF1000.0
aF0.011924
a(lp922
F0.25216979199999995
aa(lp923
F27.319399999999998
aa(lp924
F16.034657
aa(lp925
F0.036782745955135
aaa(lp926
F1900.0
aF100.0
aF0.004076
a(lp927
F0.0861715792
aa(lp928
F27.319399999999998
aa(lp929
F16.034657
aa(lp930
F0.021542897665820165
aaa(lp931
F1900.0
aF900.0
aF0.0129
a(lp932
F0.27282029599999996
aa(lp933
F27.319399999999998
aa(lp934
F16.034657
aa(lp935
F0.038202483500421804
aaa(lp936
F1900.0
aF200.0
aF0.004311
a(lp937
F0.0911272236
aa(lp938
F27.319399999999998
aa(lp939
F16.034657
aa(lp940
F0.0221015960220071
aaa(lp941
F1900.0
aF400.0
aF0.005298
a(lp942
F0.112008896
aa(lp943
F27.319399999999998
aa(lp944
F16.034657
aa(lp945
F0.024442339694881906
aaa(lp946
F1900.0
aF700.0
aF0.007104
a(lp947
F0.150191196
aa(lp948
F27.319399999999998
aa(lp949
F16.034657
aa(lp950
F0.02838347762766219
aaa(lp951
F2000.0
aF300.0
aF0.003747
a(lp952
F0.0792106844
aa(lp953
F27.319399999999998
aa(lp954
F16.034657
aa(lp955
F0.01688777470716613
aaa(lp956
F2000.0
aF900.0
aF0.009389
a(lp957
F0.19853462
aa(lp958
F27.319399999999998
aa(lp959
F16.034657
aa(lp960
F0.026770398646265993
aaa(lp961
F2000.0
aF500.0
aF0.003912
a(lp962
F0.0827017348
aa(lp963
F27.319399999999998
aa(lp964
F16.034657
aa(lp965
F0.01724450365768757
aaa(lp966
F2000.0
aF600.0
aF0.003734
a(lp967
F0.07894551279999999
aa(lp968
F27.319399999999998
aa(lp969
F16.034657
aa(lp970
F0.016831238452354003
aaa(lp971
F2000.0
aF200.0
aF0.003059
a(lp972
F0.06466187799999999
aa(lp973
F27.319399999999998
aa(lp974
F16.034657
aa(lp975
F0.015240948915339881
aaa(lp976
F2000.0
aF400.0
aF0.005451
a(lp977
F0.11524821599999999
aa(lp978
F27.319399999999998
aa(lp979
F16.034657
aa(lp980
F0.020373189680558124
aaa(lp981
F2000.0
aF100.0
aF0.002729
a(lp982
F0.057698342799999996
aa(lp983
F27.319399999999998
aa(lp984
F16.034657
aa(lp985
F0.014424584913265268
aaa(lp986
F2000.0
aF700.0
aF0.00357
a(lp987
F0.0754742332
aa(lp988
F27.319399999999998
aa(lp989
F16.034657
aa(lp990
F0.016469827049486584
aaa(lp991
F2000.0
aF1000.0
aF0.008352
a(lp992
F0.176589124
aa(lp993
F27.319399999999998
aa(lp994
F16.034657
aa(lp995
F0.025227017352037473
aaa(lp996
F2000.0
aF800.0
aF0.006329
a(lp997
F0.133809676
aa(lp998
F27.319399999999998
aa(lp999
F16.034657
aa(lp1000
F0.02199817153856202
aaa.