(lp0
(lp1
F100.0
aF1800.0
aF0.298143
a(lp2
F89.8003
aa(lp3
F4070.4845
aa(lp4
F225.33805
aa(lp5
F6.196809214785013
aaa(lp6
F100.0
aF800.0
aF0.37155
a(lp7
F3778.105901451492
aa(lp8
F167950.65000000002
aa(lp9
F7796.205000000001
aa(lp10
F479.81985264088013
aaa(lp11
F100.0
aF500.0
aF0.291494
a(lp12
F2918.874140565319
aa(lp13
F167950.65000000002
aa(lp14
F7796.205000000001
aa(lp15
F421.3030200816457
aaa(lp16
F100.0
aF1100.0
aF0.303421
a(lp17
F91.47501666666668
aa(lp18
F4070.4845
aa(lp19
F225.33805
aa(lp20
F6.2531036738211485
aaa(lp21
F100.0
aF600.0
aF0.299751
a(lp22
F3005.708078686022
aa(lp23
F167950.65000000002
aa(lp24
F7796.205000000001
aa(lp25
F429.38690238435765
aaa(lp26
F100.0
aF1400.0
aF0.326487
a(lp27
F5610.920000000002
aa(lp28
F243430.50000000003
aa(lp29
F13307.53
aa(lp30
F845.8780940537473
aaa(lp31
F100.0
aF1700.0
aF0.292658
a(lp32
F2931.094824293356
aa(lp33
F167950.65000000002
aa(lp34
F7796.205000000001
aa(lp35
F423.06700079174016
aaa(lp36
F100.0
aF100.0
aF0.267592
a(lp37
F80.19415000000001
aa(lp38
F4070.4845
aa(lp39
F225.33805
aa(lp40
F5.848758177786309
aaa(lp41
F100.0
aF1200.0
aF0.264731
a(lp42
F79.30188333333332
aa(lp43
F4070.4845
aa(lp44
F225.33805
aa(lp45
F5.814696418940927
aaa(lp46
F100.0
aF1000.0
aF0.329134
a(lp47
F3493.485007639422
aa(lp48
F168034.45
aa(lp49
F8210.1
aa(lp50
F462.723433216036
aaa(lp51
F100.0
aF2000.0
aF0.334221
a(lp52
F5730.220000000001
aa(lp53
F246773.2
aa(lp54
F13256.265000000001
aa(lp55
F854.2110394978517
aaa(lp56
F100.0
aF400.0
aF0.321539
a(lp57
F3236.6572765469846
aa(lp58
F167950.65000000002
aa(lp59
F7796.205000000001
aa(lp60
F444.58890743294825
aaa(lp61
F100.0
aF1600.0
aF0.270015
a(lp62
F80.9509
aa(lp63
F4070.4845
aa(lp64
F225.33805
aa(lp65
F5.85740272361963
aaa(lp66
F100.0
aF1300.0
aF0.299483
a(lp67
F5508.855000000001
aa(lp68
F241137.1
aa(lp69
F14313.945
aa(lp70
F840.0922568384976
aaa(lp71
F100.0
aF1500.0
aF0.274017
a(lp72
F16.218391666666665
aa(lp73
F510.6155
aa(lp74
F39.97982
aa(lp75
F1.8603770525830985
aaa(lp76
F100.0
aF900.0
aF0.281631
a(lp77
F84.59038333333334
aa(lp78
F4070.4845
aa(lp79
F225.33805
aa(lp80
F6.01157679444882
aaa(lp81
F100.0
aF1900.0
aF0.278058
a(lp82
F4739.053000000001
aa(lp83
F243430.50000000003
aa(lp84
F13307.53
aa(lp85
F779.0956295603257
aaa(lp86
F100.0
aF200.0
aF0.322882
a(lp87
F97.69238333333334
aa(lp88
F4070.4845
aa(lp89
F225.33805
aa(lp90
F6.441644027558319
aaa(lp91
F100.0
aF700.0
aF0.340512
a(lp92
F3440.0997899159693
aa(lp93
F167950.65000000002
aa(lp94
F7796.205000000001
aa(lp95
F459.7026602163594
aaa(lp96
F100.0
aF300.0
aF0.334232
a(lp97
F3551.0623567608886
aa(lp98
F168034.45
aa(lp99
F8210.1
aa(lp100
F466.27729658208295
aaa(lp101
F200.0
aF1800.0
aF0.17845
a(lp102
F48.17075
aa(lp103
F1626.9325000000001
aa(lp104
F209.49545
aa(lp105
F2.722773172704623
aaa(lp106
F200.0
aF700.0
aF0.188919
a(lp107
F19.978091666666668
aa(lp108
F793.31
aa(lp109
F78.43589999999999
aa(lp110
F1.0142341116987406
aaa(lp111
F200.0
aF2000.0
aF0.175283
a(lp112
F18.507366666666666
aa(lp113
F793.31
aa(lp114
F78.43589999999999
aa(lp115
F0.9727256236415739
aaa(lp116
F200.0
aF1300.0
aF0.165677
a(lp117
F17.475125000000002
aa(lp118
F793.31
aa(lp119
F78.43589999999999
aa(lp120
F0.9477216832429703
aaa(lp121
F200.0
aF1400.0
aF0.179394
a(lp122
F18.950058333333335
aa(lp123
F793.31
aa(lp124
F78.43589999999999
aa(lp125
F0.987839955548356
aaa(lp126
F200.0
aF400.0
aF0.18152
a(lp127
F19.179241666666666
aa(lp128
F793.31
aa(lp129
F78.43589999999999
aa(lp130
F0.9943971512652501
aaa(lp131
F200.0
aF1900.0
aF0.177698
a(lp132
F18.767308333333332
aa(lp133
F793.31
aa(lp134
F78.43589999999999
aa(lp135
F0.9850282003859359
aaa(lp136
F200.0
aF1700.0
aF0.179299
a(lp137
F18.939833333333336
aa(lp138
F793.31
aa(lp139
F78.43589999999999
aa(lp140
F0.9873072948400838
aaa(lp141
F200.0
aF500.0
aF0.164472
a(lp142
F17.345850000000002
aa(lp143
F793.31
aa(lp144
F78.43589999999999
aa(lp145
F0.9448886618715103
aaa(lp146
F200.0
aF1500.0
aF0.157765
a(lp147
F16.627191666666665
aa(lp148
F793.31
aa(lp149
F78.43589999999999
aa(lp150
F0.9251617726406315
aaa(lp151
F200.0
aF100.0
aF0.171255
a(lp152
F18.074225
aa(lp153
F793.31
aa(lp154
F78.43589999999999
aa(lp155
F0.960634194454661
aaa(lp156
F200.0
aF600.0
aF0.174965
a(lp157
F18.473166666666668
aa(lp158
F793.31
aa(lp159
F78.43589999999999
aa(lp160
F0.9777038718912343
aaa(lp161
F200.0
aF1000.0
aF0.172894
a(lp162
F18.250416666666666
aa(lp163
F793.31
aa(lp164
F78.43589999999999
aa(lp165
F0.9699985681547277
aaa(lp166
F200.0
aF1200.0
aF0.183136
a(lp167
F19.353566666666666
aa(lp168
F793.31
aa(lp169
F78.43589999999999
aa(lp170
F0.9994140644508772
aaa(lp171
F200.0
aF300.0
aF0.168633
a(lp172
F17.792508333333334
aa(lp173
F793.31
aa(lp174
F78.43589999999999
aa(lp175
F0.9551516022775302
aaa(lp176
F200.0
aF1600.0
aF0.173693
a(lp177
F18.336283333333334
aa(lp178
F793.31
aa(lp179
F78.43589999999999
aa(lp180
F0.9704591553600915
aaa(lp181
F200.0
aF900.0
aF0.172236
a(lp182
F18.179666666666666
aa(lp183
F793.31
aa(lp184
F78.43589999999999
aa(lp185
F0.9662384108834975
aaa(lp186
F200.0
aF800.0
aF0.184908
a(lp187
F19.544800000000002
aa(lp188
F793.31
aa(lp189
F78.43589999999999
aa(lp190
F1.003949146565148
aaa(lp191
F200.0
aF1100.0
aF0.160094
a(lp192
F16.876658333333335
aa(lp193
F793.31
aa(lp194
F78.43589999999999
aa(lp195
F0.9318574640648285
aaa(lp196
F200.0
aF200.0
aF0.191017
a(lp197
F51.63165
aa(lp198
F1626.9325000000001
aa(lp199
F209.49545
aa(lp200
F2.8209384520049348
aaa(lp201
F300.0
aF2000.0
aF0.184516
a(lp202
F10.63431125
aa(lp203
F316.11505
aa(lp204
F41.70535
aa(lp205
F0.5589271251692836
aaa(lp206
F300.0
aF400.0
aF0.172246
a(lp207
F9.91204375
aa(lp208
F316.11505
aa(lp209
F41.70535
aa(lp210
F0.5391439974626444
aaa(lp211
F300.0
aF1000.0
aF0.178231
a(lp212
F10.263945000000001
aa(lp213
F316.11505
aa(lp214
F41.70535
aa(lp215
F0.5502052173962002
aaa(lp216
F300.0
aF200.0
aF0.176213
a(lp217
F10.145221249999999
aa(lp218
F316.11505
aa(lp219
F41.70535
aa(lp220
F0.5462003695989229
aaa(lp221
F300.0
aF1600.0
aF0.161629
a(lp222
F9.28946375
aa(lp223
F316.11505
aa(lp224
F41.70535
aa(lp225
F0.5242347100774614
aaa(lp226
F300.0
aF1300.0
aF0.173427
a(lp227
F9.98140625
aa(lp228
F316.11505
aa(lp229
F41.70535
aa(lp230
F0.5429168905090355
aaa(lp231
F300.0
aF800.0
aF0.179739
a(lp232
F10.352763750000001
aa(lp233
F316.11505
aa(lp234
F41.70535
aa(lp235
F0.5525896420491431
aaa(lp236
F300.0
aF700.0
aF0.183587
a(lp237
F10.579532500000001
aa(lp238
F316.11505
aa(lp239
F41.70535
aa(lp240
F0.5599282878190742
aaa(lp241
F300.0
aF300.0
aF0.179166
a(lp242
F10.31899
aa(lp243
F316.11505
aa(lp244
F41.70535
aa(lp245
F0.5523628223369129
aaa(lp246
F300.0
aF900.0
aF0.184349
a(lp247
F10.6244825
aa(lp248
F316.11505
aa(lp249
F41.70535
aa(lp250
F0.5599594014301394
aaa(lp251
F300.0
aF600.0
aF0.177487
a(lp252
F10.220176250000002
aa(lp253
F316.11505
aa(lp254
F41.70535
aa(lp255
F0.5502357449312066
aaa(lp256
F300.0
aF1400.0
aF0.184821
a(lp257
F10.652308750000001
aa(lp258
F316.11505
aa(lp259
F41.70535
aa(lp260
F0.5606479231656887
aaa(lp261
F300.0
aF500.0
aF0.185411
a(lp262
F10.68714
aa(lp263
F316.11505
aa(lp264
F41.70535
aa(lp265
F0.5617037419761418
aaa(lp266
F300.0
aF1200.0
aF0.175041
a(lp267
F10.07632
aa(lp268
F316.11505
aa(lp269
F41.70535
aa(lp270
F0.5456633004884972
aaa(lp271
F300.0
aF100.0
aF0.086195
a(lp272
F8.8953
aa(lp273
F773.8245000000001
aa(lp274
F77.21495
aa(lp275
F0.726298234198597
aaa(lp276
F300.0
aF1100.0
aF0.175307
a(lp277
F10.091940000000001
aa(lp278
F316.11505
aa(lp279
F41.70535
aa(lp280
F0.5457095438509391
aaa(lp281
F300.0
aF1900.0
aF0.172027
a(lp282
F9.89916375
aa(lp283
F316.11505
aa(lp284
F41.70535
aa(lp285
F0.5408490142821746
aaa(lp286
F300.0
aF1500.0
aF0.17255
a(lp287
F9.9299025
aa(lp288
F316.11505
aa(lp289
F41.70535
aa(lp290
F0.5401154390498386
aaa(lp291
F300.0
aF1700.0
aF0.163043
a(lp292
F16.931994999999997
aa(lp293
F773.8245000000001
aa(lp294
F77.21495
aa(lp295
F0.9977274176848102
aaa(lp296
F300.0
aF1800.0
aF0.186581
a(lp297
F10.75618625
aa(lp298
F316.11505
aa(lp299
F41.70535
aa(lp300
F0.5622347985939682
aaa(lp301
F400.0
aF900.0
aF0.171191
a(lp302
F4.46158
aa(lp303
F112.0686
aa(lp304
F17.457115
aa(lp305
F0.2474839641269713
aaa(lp306
F400.0
aF1200.0
aF0.166499
a(lp307
F4.3361737499999995
aa(lp308
F112.0686
aa(lp309
F17.457115
aa(lp310
F0.24354375890176286
aaa(lp311
F400.0
aF1500.0
aF0.168536
a(lp312
F4.390594999999999
aa(lp313
F112.0686
aa(lp314
F17.457115
aa(lp315
F0.24621237022131928
aaa(lp316
F400.0
aF200.0
aF0.158774
a(lp317
F4.13020125
aa(lp318
F112.0686
aa(lp319
F17.457115
aa(lp320
F0.2372738396873958
aaa(lp321
F400.0
aF1600.0
aF0.159888
a(lp322
F4.15987875
aa(lp323
F112.0686
aa(lp324
F17.457115
aa(lp325
F0.23897878436170858
aaa(lp326
F400.0
aF500.0
aF0.172286
a(lp327
F4.49087875
aa(lp328
F112.0686
aa(lp329
F17.457115
aa(lp330
F0.24834618604882983
aaa(lp331
F400.0
aF1700.0
aF0.18807
a(lp332
F4.914691250000001
aa(lp333
F112.0686
aa(lp334
F17.457115
aa(lp335
F0.2593874695797775
aaa(lp336
F400.0
aF300.0
aF0.175162
a(lp337
F4.5678962499999995
aa(lp338
F112.0686
aa(lp339
F17.457115
aa(lp340
F0.2499441500115576
aaa(lp341
F400.0
aF1300.0
aF0.177707
a(lp342
F4.6361275
aa(lp343
F112.0686
aa(lp344
F17.457115
aa(lp345
F0.2525459426025292
aaa(lp346
F400.0
aF1400.0
aF0.177861
a(lp347
F4.640267499999999
aa(lp348
F112.0686
aa(lp349
F17.457115
aa(lp350
F0.25239731823060246
aaa(lp351
F400.0
aF1100.0
aF0.181367
a(lp352
F4.73438375
aa(lp353
F112.0686
aa(lp354
F17.457115
aa(lp355
F0.25489066283408657
aaa(lp356
F400.0
aF800.0
aF0.179393
a(lp357
F4.681368749999999
aa(lp358
F112.0686
aa(lp359
F17.457115
aa(lp360
F0.2535103240008186
aaa(lp361
F400.0
aF100.0
aF0.057497
a(lp362
F1.4777225
aa(lp363
F112.0686
aa(lp364
F17.457115
aa(lp365
F0.14219391469046766
aaa(lp366
F400.0
aF1000.0
aF0.162862
a(lp367
F4.23912875
aa(lp368
F112.0686
aa(lp369
F17.457115
aa(lp370
F0.24076628968773844
aaa(lp371
F400.0
aF400.0
aF0.154193
a(lp372
F4.0083475
aa(lp373
F112.0686
aa(lp374
F17.457115
aa(lp375
F0.234570751586808
aaa(lp376
F400.0
aF1800.0
aF0.161558
a(lp377
F4.20436
aa(lp378
F112.0686
aa(lp379
F17.457115
aa(lp380
F0.2403472747921224
aaa(lp381
F400.0
aF2000.0
aF0.167501
a(lp382
F4.362935
aa(lp383
F112.0686
aa(lp384
F17.457115
aa(lp385
F0.24389553347693763
aaa(lp386
F400.0
aF600.0
aF0.172522
a(lp387
F4.49720375
aa(lp388
F112.0686
aa(lp389
F17.457115
aa(lp390
F0.2479388785567927
aaa(lp391
F400.0
aF700.0
aF0.167352
a(lp392
F4.3589525
aa(lp393
F112.0686
aa(lp394
F17.457115
aa(lp395
F0.2440545213164468
aaa(lp396
F400.0
aF1900.0
aF0.186445
a(lp397
F4.8709275000000005
aa(lp398
F112.0686
aa(lp399
F17.457115
aa(lp400
F0.25815862371805437
aaa(lp401
F500.0
aF1700.0
aF0.16254
a(lp402
F1.7313299999999998
aa(lp403
F38.072655
aa(lp404
F5.44904
aa(lp405
F0.09087124591053725
aaa(lp406
F500.0
aF1100.0
aF0.152072
a(lp407
F1.6157825000000001
aa(lp408
F38.072655
aa(lp409
F5.44904
aa(lp410
F0.08775728048303329
aaa(lp411
F500.0
aF300.0
aF0.141037
a(lp412
F1.4946791666666668
aa(lp413
F38.072655
aa(lp414
F5.44904
aa(lp415
F0.08434963610538643
aaa(lp416
F500.0
aF1300.0
aF0.159427
a(lp417
F1.6968983333333334
aa(lp418
F38.072655
aa(lp419
F5.44904
aa(lp420
F0.08955887262949813
aaa(lp421
F500.0
aF1800.0
aF0.15716
a(lp422
F1.6718633333333335
aa(lp423
F38.072655
aa(lp424
F5.44904
aa(lp425
F0.08898427607666926
aaa(lp426
F500.0
aF1400.0
aF0.14892
a(lp427
F1.581111666666667
aa(lp428
F38.072655
aa(lp429
F5.44904
aa(lp430
F0.0867747723195579
aaa(lp431
F500.0
aF600.0
aF0.149789
a(lp432
F1.5906691666666668
aa(lp433
F38.072655
aa(lp434
F5.44904
aa(lp435
F0.08677813344641866
aaa(lp436
F500.0
aF1900.0
aF0.169708
a(lp437
F1.8108608333333331
aa(lp438
F38.072655
aa(lp439
F5.44904
aa(lp440
F0.09253066308587175
aaa(lp441
F500.0
aF1200.0
aF0.148983
a(lp442
F1.5818074999999998
aa(lp443
F38.072655
aa(lp444
F5.44904
aa(lp445
F0.08642337646724987
aaa(lp446
F500.0
aF800.0
aF0.172217
a(lp447
F1.8387741666666668
aa(lp448
F38.072655
aa(lp449
F5.44904
aa(lp450
F0.09371258512660459
aaa(lp451
F500.0
aF1000.0
aF0.16482
a(lp452
F1.7565991666666667
aa(lp453
F38.072655
aa(lp454
F5.44904
aa(lp455
F0.09132124311705597
aaa(lp456
F500.0
aF2000.0
aF0.151855
a(lp457
F1.6133916666666668
aa(lp458
F38.072655
aa(lp459
F5.44904
aa(lp460
F0.08762740724225497
aaa(lp461
F500.0
aF700.0
aF0.143019
a(lp462
F1.51638
aa(lp463
F38.072655
aa(lp464
F5.44904
aa(lp465
F0.08490096354642337
aaa(lp466
F500.0
aF100.0
aF0.057306
a(lp467
F0.5969360833333334
aa(lp468
F38.072655
aa(lp469
F5.44904
aa(lp470
F0.05317929578322752
aaa(lp471
F500.0
aF200.0
aF0.107418
a(lp472
F1.1300016666666668
aa(lp473
F38.072655
aa(lp474
F5.44904
aa(lp475
F0.07309371838035512
aaa(lp476
F500.0
aF1500.0
aF0.132893
a(lp477
F1.4057741666666665
aa(lp478
F38.072655
aa(lp479
F5.44904
aa(lp480
F0.08143431657886413
aaa(lp481
F500.0
aF900.0
aF0.152825
a(lp482
F1.6240733333333335
aa(lp483
F38.072655
aa(lp484
F5.44904
aa(lp485
F0.08756418280958894
aaa(lp486
F500.0
aF1600.0
aF0.163942
a(lp487
F1.7468633333333334
aa(lp488
F38.072655
aa(lp489
F5.44904
aa(lp490
F0.09106152529410479
aaa(lp491
F500.0
aF500.0
aF0.164968
a(lp492
F1.7582366666666667
aa(lp493
F38.072655
aa(lp494
F5.44904
aa(lp495
F0.09116030599383093
aaa(lp496
F500.0
aF400.0
aF0.157005
a(lp497
F1.6701541666666668
aa(lp498
F38.072655
aa(lp499
F5.44904
aa(lp500
F0.08914625934696058
aaa(lp501
F600.0
aF200.0
aF0.050922
a(lp502
F0.26838054166666664
aa(lp503
F13.56206
aa(lp504
F1.8869829999999999
aa(lp505
F0.018836619366719355
aaa(lp506
F600.0
aF1400.0
aF0.106849
a(lp507
F1.1238825
aa(lp508
F38.072655
aa(lp509
F5.44904
aa(lp510
F0.05445229180974235
aaa(lp511
F600.0
aF1900.0
aF0.110495
a(lp512
F0.59451625
aa(lp513
F13.56206
aa(lp514
F1.8869829999999999
aa(lp515
F0.028025766294410025
aaa(lp516
F600.0
aF100.0
aF0.037091
a(lp517
F0.19460308333333332
aa(lp518
F13.56206
aa(lp519
F1.8869829999999999
aa(lp520
F0.016050592754717125
aaa(lp521
F600.0
aF800.0
aF0.100415
a(lp522
F1.0547941666666667
aa(lp523
F38.072655
aa(lp524
F5.44904
aa(lp525
F0.052673905093298126
aaa(lp526
F600.0
aF1200.0
aF0.102616
a(lp527
F1.0784091666666666
aa(lp528
F38.072655
aa(lp529
F5.44904
aa(lp530
F0.05338922852244844
aaa(lp531
F600.0
aF600.0
aF0.107251
a(lp532
F1.1282075
aa(lp533
F38.072655
aa(lp534
F5.44904
aa(lp535
F0.054533972592015215
aaa(lp536
F600.0
aF1600.0
aF0.105934
a(lp537
F1.1140533333333333
aa(lp538
F38.072655
aa(lp539
F5.44904
aa(lp540
F0.054231288375705115
aaa(lp541
F600.0
aF400.0
aF0.100616
a(lp542
F1.0569475
aa(lp543
F38.072655
aa(lp544
F5.44904
aa(lp545
F0.052781434814820165
aaa(lp546
F600.0
aF500.0
aF0.095784
a(lp547
F1.0051916666666667
aa(lp548
F38.072655
aa(lp549
F5.44904
aa(lp550
F0.05156522972572378
aaa(lp551
F600.0
aF1100.0
aF0.098034
a(lp552
F1.0292766666666666
aa(lp553
F38.072655
aa(lp554
F5.44904
aa(lp555
F0.05218641798612185
aaa(lp556
F600.0
aF300.0
aF0.10588
a(lp557
F1.1134641666666667
aa(lp558
F38.072655
aa(lp559
F5.44904
aa(lp560
F0.05420259705750065
aaa(lp561
F600.0
aF1700.0
aF0.105386
a(lp562
F1.1081599999999998
aa(lp563
F38.072655
aa(lp564
F5.44904
aa(lp565
F0.05400840340992213
aaa(lp566
F600.0
aF1500.0
aF0.105088
a(lp567
F1.1049508333333333
aa(lp568
F38.072655
aa(lp569
F5.44904
aa(lp570
F0.05391608062535703
aaa(lp571
F600.0
aF1800.0
aF0.098617
a(lp572
F1.0355291666666666
aa(lp573
F38.072655
aa(lp574
F5.44904
aa(lp575
F0.05236895682452429
aaa(lp576
F600.0
aF1000.0
aF0.113077
a(lp577
F1.1909641666666666
aa(lp578
F38.072655
aa(lp579
F5.44904
aa(lp580
F0.0561425949900984
aaa(lp581
F600.0
aF2000.0
aF0.102454
a(lp582
F1.0766674999999999
aa(lp583
F38.072655
aa(lp584
F5.44904
aa(lp585
F0.05343409102186855
aaa(lp586
F600.0
aF700.0
aF0.109046
a(lp587
F1.1475316666666666
aa(lp588
F38.072655
aa(lp589
F5.44904
aa(lp590
F0.05501992063486339
aaa(lp591
F600.0
aF1300.0
aF0.106265
a(lp592
F1.1176116666666667
aa(lp593
F38.072655
aa(lp594
F5.44904
aa(lp595
F0.054212121953181897
aaa(lp596
F600.0
aF900.0
aF0.104053
a(lp597
F1.0938383333333332
aa(lp598
F38.072655
aa(lp599
F5.44904
aa(lp600
F0.05369442863711901
aaa(lp601
F700.0
aF2000.0
aF0.060138
a(lp602
F0.4349720833333333
aa(lp603
F20.807265
aa(lp604
F3.4006055
aa(lp605
F0.018364533111105464
aaa(lp606
F700.0
aF100.0
aF0.020734
a(lp607
F0.14854295833333334
aa(lp608
F20.807265
aa(lp609
F3.4006055
aa(lp610
F0.01074819025464287
aaa(lp611
F700.0
aF1000.0
aF0.059855
a(lp612
F0.31639758333333334
aa(lp613
F13.56206
aa(lp614
F1.8869829999999999
aa(lp615
F0.015587789024318578
aaa(lp616
F700.0
aF600.0
aF0.056787
a(lp617
F0.41038979166666667
aa(lp618
F20.807265
aa(lp619
F3.4006055
aa(lp620
F0.01780939787802434
aaa(lp621
F700.0
aF1400.0
aF0.063086
a(lp622
F0.45663125000000004
aa(lp623
F20.807265
aa(lp624
F3.4006055
aa(lp625
F0.018783303756261836
aaa(lp626
F700.0
aF1900.0
aF0.060072
a(lp627
F0.43448624999999996
aa(lp628
F20.807265
aa(lp629
F3.4006055
aa(lp630
F0.01837681869306485
aaa(lp631
F700.0
aF200.0
aF0.028733
a(lp632
F0.20623941666666665
aa(lp633
F20.807265
aa(lp634
F3.4006055
aa(lp635
F0.012621647657232922
aaa(lp636
F700.0
aF400.0
aF0.061537
a(lp637
F0.4452433333333334
aa(lp638
F20.807265
aa(lp639
F3.4006055
aa(lp640
F0.018551813702888102
aaa(lp641
F700.0
aF1300.0
aF0.059969
a(lp642
F0.3170135416666666
aa(lp643
F13.56206
aa(lp644
F1.8869829999999999
aa(lp645
F0.01565618000095241
aaa(lp646
F700.0
aF1100.0
aF0.056674
a(lp647
F0.4095555833333333
aa(lp648
F20.807265
aa(lp649
F3.4006055
aa(lp650
F0.017773199822891893
aaa(lp651
F700.0
aF800.0
aF0.05873
a(lp652
F0.4246333333333333
aa(lp653
F20.807265
aa(lp654
F3.4006055
aa(lp655
F0.01813942912246383
aaa(lp656
F700.0
aF1500.0
aF0.060527
a(lp657
F0.320024
aa(lp658
F13.56206
aa(lp659
F1.8869829999999999
aa(lp660
F0.01570936115116645
aaa(lp661
F700.0
aF1600.0
aF0.060391
a(lp662
F0.4368308333333334
aa(lp663
F20.807265
aa(lp664
F3.4006055
aa(lp665
F0.018377612248179697
aaa(lp666
F700.0
aF1800.0
aF0.060165
a(lp667
F0.318072875
aa(lp668
F13.56206
aa(lp669
F1.8869829999999999
aa(lp670
F0.01563242601311631
aaa(lp671
F700.0
aF1200.0
aF0.0617
a(lp672
F0.4464433333333333
aa(lp673
F20.807265
aa(lp674
F3.4006055
aa(lp675
F0.018553549563059057
aaa(lp676
F700.0
aF700.0
aF0.061033
a(lp677
F0.4415425
aa(lp678
F20.807265
aa(lp679
F3.4006055
aa(lp680
F0.018413602686299303
aaa(lp681
F700.0
aF900.0
aF0.062595
a(lp682
F0.45302041666666665
aa(lp683
F20.807265
aa(lp684
F3.4006055
aa(lp685
F0.018666387646724198
aaa(lp686
F700.0
aF300.0
aF0.049973
a(lp687
F0.3605317916666667
aa(lp688
F20.807265
aa(lp689
F3.4006055
aa(lp690
F0.016701312947390294
aaa(lp691
F700.0
aF500.0
aF0.062433
a(lp692
F0.45182958333333334
aa(lp693
F20.807265
aa(lp694
F3.4006055
aa(lp695
F0.01868084933680598
aaa(lp696
F700.0
aF1700.0
aF0.058846
a(lp697
F0.310959625
aa(lp698
F13.56206
aa(lp699
F1.8869829999999999
aa(lp700
F0.015490000134495372
aaa(lp701
F800.0
aF300.0
aF0.026678
a(lp702
F0.087752
aa(lp703
F5.751765
aa(lp704
F0.9788095
aa(lp705
F0.0052348451166258705
aaa(lp706
F800.0
aF100.0
aF0.016969
a(lp707
F0.05554916666666666
aa(lp708
F5.751765
aa(lp709
F0.9788095
aa(lp710
F0.004163585898100842
aaa(lp711
F800.0
aF1800.0
aF0.05052
a(lp712
F0.1681855
aa(lp713
F5.751765
aa(lp714
F0.9788095
aa(lp715
F0.007237551040353941
aaa(lp716
F800.0
aF800.0
aF0.052497
a(lp717
F0.17494411111111113
aa(lp718
F5.751765
aa(lp719
F0.9788095
aa(lp720
F0.007373015008030432
aaa(lp721
F800.0
aF400.0
aF0.047303
a(lp722
F0.15721919444444446
aa(lp723
F5.751765
aa(lp724
F0.9788095
aa(lp725
F0.007017036697377724
aaa(lp726
F800.0
aF200.0
aF0.021616
a(lp727
F0.07092363888888889
aa(lp728
F5.751765
aa(lp729
F0.9788095
aa(lp730
F0.004697032488447452
aaa(lp731
F800.0
aF1700.0
aF0.048145
a(lp732
F0.1600847777777778
aa(lp733
F5.751765
aa(lp734
F0.9788095
aa(lp735
F0.007061036803525438
aaa(lp736
F800.0
aF600.0
aF0.046486
a(lp737
F0.15443991666666665
aa(lp738
F5.751765
aa(lp739
F0.9788095
aa(lp740
F0.006941557733350066
aaa(lp741
F800.0
aF1600.0
aF0.048698
a(lp742
F0.16196977777777777
aa(lp743
F5.751765
aa(lp744
F0.9788095
aa(lp745
F0.007096024578227925
aaa(lp746
F800.0
aF1000.0
aF0.048537
a(lp747
F0.16142066666666666
aa(lp748
F5.751765
aa(lp749
F0.9788095
aa(lp750
F0.007065191364170235
aaa(lp751
F800.0
aF1100.0
aF0.053665
a(lp752
F0.17894519444444446
aa(lp753
F5.751765
aa(lp754
F0.9788095
aa(lp755
F0.007456049722818095
aaa(lp756
F800.0
aF1500.0
aF0.050126
a(lp757
F0.16684038888888889
aa(lp758
F5.751765
aa(lp759
F0.9788095
aa(lp760
F0.007206407364197879
aaa(lp761
F800.0
aF1400.0
aF0.051679
a(lp762
F0.1721466111111111
aa(lp763
F5.751765
aa(lp764
F0.9788095
aa(lp765
F0.007333691594784131
aaa(lp766
F800.0
aF1200.0
aF0.051264
a(lp767
F0.17072930555555554
aa(lp768
F5.751765
aa(lp769
F0.9788095
aa(lp770
F0.007299858361555067
aaa(lp771
F800.0
aF900.0
aF0.051003
a(lp772
F0.16983572222222224
aa(lp773
F5.751765
aa(lp774
F0.9788095
aa(lp775
F0.007281647084228901
aaa(lp776
F800.0
aF1300.0
aF0.046304
a(lp777
F0.15382169444444443
aa(lp778
F5.751765
aa(lp779
F0.9788095
aa(lp780
F0.0069489557568825485
aaa(lp781
F800.0
aF2000.0
aF0.049961
a(lp782
F0.16627941666666665
aa(lp783
F5.751765
aa(lp784
F0.9788095
aa(lp785
F0.007202361581153713
aaa(lp786
F800.0
aF500.0
aF0.048988
a(lp787
F0.1629581388888889
aa(lp788
F5.751765
aa(lp789
F0.9788095
aa(lp790
F0.007125662195781881
aaa(lp791
F800.0
aF1900.0
aF0.049875
a(lp792
F0.16598444444444446
aa(lp793
F5.751765
aa(lp794
F0.9788095
aa(lp795
F0.007203112003215291
aaa(lp796
F800.0
aF700.0
aF0.048313
a(lp797
F0.16065847222222224
aa(lp798
F5.751765
aa(lp799
F0.9788095
aa(lp800
F0.0070932441558373685
aaa(lp801
F900.0
aF200.0
aF0.012432
a(lp802
F0.03386578333333334
aa(lp803
F4.157417
aa(lp804
F0.706357
aa(lp805
F0.0019886678958539053
aaa(lp806
F900.0
aF1100.0
aF0.034688
a(lp807
F0.0957523
aa(lp808
F4.157417
aa(lp809
F0.706357
aa(lp810
F0.0033336674832515753
aaa(lp811
F900.0
aF300.0
aF0.017726
a(lp812
F0.04843841666666667
aa(lp813
F4.157417
aa(lp814
F0.706357
aa(lp815
F0.0023692005215074368
aaa(lp816
F900.0
aF1000.0
aF0.034051
a(lp817
F0.09395748333333333
aa(lp818
F4.157417
aa(lp819
F0.706357
aa(lp820
F0.00331362507099266
aaa(lp821
F900.0
aF900.0
aF0.034514
a(lp822
F0.09526295
aa(lp823
F4.157417
aa(lp824
F0.706357
aa(lp825
F0.003336915575131555
aaa(lp826
F900.0
aF1600.0
aF0.033715
a(lp827
F0.09301175
aa(lp828
F4.157417
aa(lp829
F0.706357
aa(lp830
F0.003286408458417115
aaa(lp831
F900.0
aF700.0
aF0.03259
a(lp832
F0.08984805
aa(lp833
F4.157417
aa(lp834
F0.706357
aa(lp835
F0.003240003858022395
aaa(lp836
F900.0
aF1900.0
aF0.032398
a(lp837
F0.08930981666666668
aa(lp838
F4.157417
aa(lp839
F0.706357
aa(lp840
F0.0032247902601909204
aaa(lp841
F900.0
aF500.0
aF0.033962
a(lp842
F0.09370813333333333
aa(lp843
F4.157417
aa(lp844
F0.706357
aa(lp845
F0.003302777450705525
aaa(lp846
F900.0
aF1400.0
aF0.033379
a(lp847
F0.09206703333333333
aa(lp848
F4.157417
aa(lp849
F0.706357
aa(lp850
F0.0032693963934918896
aaa(lp851
F900.0
aF1200.0
aF0.033362
a(lp852
F0.09201860000000002
aa(lp853
F4.157417
aa(lp854
F0.706357
aa(lp855
F0.0032594657026369625
aaa(lp856
F900.0
aF1500.0
aF0.033688
a(lp857
F0.09293586666666667
aa(lp858
F4.157417
aa(lp859
F0.706357
aa(lp860
F0.003283727556705438
aaa(lp861
F900.0
aF800.0
aF0.034755
a(lp862
F0.09594273333333334
aa(lp863
F4.157417
aa(lp864
F0.706357
aa(lp865
F0.0033362553859079794
aaa(lp866
F900.0
aF400.0
aF0.029925
a(lp867
F0.08237038333333332
aa(lp868
F4.157417
aa(lp869
F0.706357
aa(lp870
F0.0030978567860162074
aaa(lp871
F900.0
aF100.0
aF0.01007
a(lp872
F0.027394116666666666
aa(lp873
F4.157417
aa(lp874
F0.706357
aa(lp875
F0.0017869946838197368
aaa(lp876
F900.0
aF600.0
aF0.032854
a(lp877
F0.09059006666666665
aa(lp878
F4.157417
aa(lp879
F0.706357
aa(lp880
F0.00324990042582504
aaa(lp881
F900.0
aF1800.0
aF0.034438
a(lp882
F0.09504835
aa(lp883
F4.157417
aa(lp884
F0.706357
aa(lp885
F0.0033355434339849333
aaa(lp886
F900.0
aF2000.0
aF0.032889
a(lp887
F0.09069011666666665
aa(lp888
F4.157417
aa(lp889
F0.706357
aa(lp890
F0.003243071674953992
aaa(lp891
F900.0
aF1700.0
aF0.033149
a(lp892
F0.09141951666666666
aa(lp893
F4.157417
aa(lp894
F0.706357
aa(lp895
F0.0032754444142911524
aaa(lp896
F900.0
aF1300.0
aF0.035039
a(lp897
F0.096742
aa(lp898
F4.157417
aa(lp899
F0.706357
aa(lp900
F0.003364048899763498
aaa(lp901
F1000.0
aF1600.0
aF0.023955
a(lp902
F0.0657024
aa(lp903
F4.157417
aa(lp904
F0.706357
aa(lp905
F0.0021998794158872535
aaa(lp906
F1000.0
aF1400.0
aF0.023547
a(lp907
F0.06456833333333332
aa(lp908
F4.157417
aa(lp909
F0.706357
aa(lp910
F0.0021840564960132736
aaa(lp911
F1000.0
aF1500.0
aF0.023669
a(lp912
F0.06490926666666666
aa(lp913
F4.157417
aa(lp914
F0.706357
aa(lp915
F0.0021856088650788166
aaa(lp916
F1000.0
aF700.0
aF0.023825
a(lp917
F0.06534216666666667
aa(lp918
F4.157417
aa(lp919
F0.706357
aa(lp920
F0.0021989391381603387
aaa(lp921
F1000.0
aF1900.0
aF0.024844
a(lp922
F0.06817735
aa(lp923
F4.157417
aa(lp924
F0.706357
aa(lp925
F0.002245301266596039
aaa(lp926
F1000.0
aF1800.0
aF0.02337
a(lp927
F0.06407743333333334
aa(lp928
F4.157417
aa(lp929
F0.706357
aa(lp930
F0.0021774398830839035
aaa(lp931
F1000.0
aF500.0
aF0.024915
a(lp932
F0.06837606666666668
aa(lp933
F4.157417
aa(lp934
F0.706357
aa(lp935
F0.002244554521503098
aaa(lp936
F1000.0
aF1000.0
aF0.023687
a(lp937
F0.06495708333333333
aa(lp938
F4.157417
aa(lp939
F0.706357
aa(lp940
F0.0021897025419499844
aaa(lp941
F1000.0
aF200.0
aF0.008018
a(lp942
F0.021785866666666664
aa(lp943
F4.157417
aa(lp944
F0.706357
aa(lp945
F0.0012684217008200039
aaa(lp946
F1000.0
aF1100.0
aF0.023029
a(lp947
F0.06312798333333333
aa(lp948
F4.157417
aa(lp949
F0.706357
aa(lp950
F0.0021576697821698502
aaa(lp951
F1000.0
aF2000.0
aF0.0241
a(lp952
F0.06610616666666667
aa(lp953
F4.157417
aa(lp954
F0.706357
aa(lp955
F0.002203538820473407
aaa(lp956
F1000.0
aF1700.0
aF0.022987
a(lp957
F0.06301138333333334
aa(lp958
F4.157417
aa(lp959
F0.706357
aa(lp960
F0.0021474222272814033
aaa(lp961
F1000.0
aF800.0
aF0.023327
a(lp962
F0.06395611666666666
aa(lp963
F4.157417
aa(lp964
F0.706357
aa(lp965
F0.002177091586906205
aaa(lp966
F1000.0
aF1300.0
aF0.023332
a(lp967
F0.06397156666666666
aa(lp968
F4.157417
aa(lp969
F0.706357
aa(lp970
F0.0021814126411825686
aaa(lp971
F1000.0
aF400.0
aF0.01603
a(lp972
F0.043761216666666665
aa(lp973
F4.157417
aa(lp974
F0.706357
aa(lp975
F0.0017910277930717757
aaa(lp976
F1000.0
aF300.0
aF0.011848
a(lp977
F0.03226495
aa(lp978
F4.157417
aa(lp979
F0.706357
aa(lp980
F0.0015416786486020864
aaa(lp981
F1000.0
aF600.0
aF0.022801
a(lp982
F0.06249593333333334
aa(lp983
F4.157417
aa(lp984
F0.706357
aa(lp985
F0.002143593167246683
aaa(lp986
F1000.0
aF1200.0
aF0.023578
a(lp987
F0.06465398333333333
aa(lp988
F4.157417
aa(lp989
F0.706357
aa(lp990
F0.0021770131168899996
aaa(lp991
F1000.0
aF100.0
aF0.008193
a(lp992
F0.022264116666666667
aa(lp993
F4.157417
aa(lp994
F0.706357
aa(lp995
F0.0012811559450572581
aaa(lp996
F1000.0
aF900.0
aF0.024325
a(lp997
F0.06673421666666665
aa(lp998
F4.157417
aa(lp999
F0.706357
aa(lp1000
F0.002217095823118362
aaa(lp1001
F1100.0
aF1300.0
aF0.016517
a(lp1002
F0.045104399999999996
aa(lp1003
F4.157417
aa(lp1004
F0.706357
aa(lp1005
F0.0014603089475252221
aaa(lp1006
F1100.0
aF1800.0
aF0.015985
a(lp1007
F0.04363786666666667
aa(lp1008
F4.157417
aa(lp1009
F0.706357
aa(lp1010
F0.0014386976170597256
aaa(lp1011
F1100.0
aF2000.0
aF0.016486
a(lp1012
F0.04501875
aa(lp1013
F4.157417
aa(lp1014
F0.706357
aa(lp1015
F0.0014621407440994028
aaa(lp1016
F1100.0
aF700.0
aF0.016115
a(lp1017
F0.0439952
aa(lp1018
F4.157417
aa(lp1019
F0.706357
aa(lp1020
F0.0014434359085952594
aaa(lp1021
F1100.0
aF900.0
aF0.01776
a(lp1022
F0.04853481666666667
aa(lp1023
F4.157417
aa(lp1024
F0.706357
aa(lp1025
F0.0015174541911445706
aaa(lp1026
F1100.0
aF200.0
aF0.005594
a(lp1027
F0.015178846666666666
aa(lp1028
F4.157417
aa(lp1029
F0.706357
aa(lp1030
F0.000849852274744787
aaa(lp1031
F1100.0
aF1900.0
aF0.016562
a(lp1032
F0.04522801666666667
aa(lp1033
F4.157417
aa(lp1034
F0.706357
aa(lp1035
F0.001467390825013341
aaa(lp1036
F1100.0
aF1500.0
aF0.016455
a(lp1037
F0.04493365
aa(lp1038
F4.157417
aa(lp1039
F0.706357
aa(lp1040
F0.001460919041030147
aaa(lp1041
F1100.0
aF800.0
aF0.015717
a(lp1042
F0.04289831666666667
aa(lp1043
F4.157417
aa(lp1044
F0.706357
aa(lp1045
F0.0014259884486052315
aaa(lp1046
F1100.0
aF500.0
aF0.013023
a(lp1047
F0.035490383333333334
aa(lp1048
F4.157417
aa(lp1049
F0.706357
aa(lp1050
F0.0012976567556775389
aaa(lp1051
F1100.0
aF1700.0
aF0.016194
a(lp1052
F0.04421208333333333
aa(lp1053
F4.157417
aa(lp1054
F0.706357
aa(lp1055
F0.0014482147055369012
aaa(lp1056
F1100.0
aF400.0
aF0.008722
a(lp1057
F0.02370896666666667
aa(lp1058
F4.157417
aa(lp1059
F0.706357
aa(lp1060
F0.001061359191477293
aaa(lp1061
F1100.0
aF600.0
aF0.016578
a(lp1062
F0.0452712
aa(lp1063
F4.157417
aa(lp1064
F0.706357
aa(lp1065
F0.0014641748719178168
aaa(lp1066
F1100.0
aF1400.0
aF0.016606
a(lp1067
F0.045350216666666665
aa(lp1068
F4.157417
aa(lp1069
F0.706357
aa(lp1070
F0.0014636720374910951
aaa(lp1071
F1100.0
aF100.0
aF0.004832
a(lp1072
F0.013105931666666666
aa(lp1073
F4.157417
aa(lp1074
F0.706357
aa(lp1075
F0.0007874591700173696
aaa(lp1076
F1100.0
aF1100.0
aF0.015548
a(lp1077
F0.042433399999999996
aa(lp1078
F4.157417
aa(lp1079
F0.706357
aa(lp1080
F0.001416809992749753
aaa(lp1081
F1100.0
aF1000.0
aF0.016995
a(lp1082
F0.04642185
aa(lp1083
F4.157417
aa(lp1084
F0.706357
aa(lp1085
F0.0014836487492365274
aaa(lp1086
F1100.0
aF300.0
aF0.00658
a(lp1087
F0.017864566666666668
aa(lp1088
F4.157417
aa(lp1089
F0.706357
aa(lp1090
F0.0009225226585594283
aaa(lp1091
F1100.0
aF1200.0
aF0.015925
a(lp1092
F0.043471616666666664
aa(lp1093
F4.157417
aa(lp1094
F0.706357
aa(lp1095
F0.0014387007062701478
aaa(lp1096
F1100.0
aF1600.0
aF0.016684
a(lp1097
F0.04556551666666667
aa(lp1098
F4.157417
aa(lp1099
F0.706357
aa(lp1100
F0.0014637749902981067
aaa(lp1101
F1200.0
aF100.0
aF0.003818
a(lp1102
F0.006234557142857143
aa(lp1103
F1.5741675
aa(lp1104
F0.33299695
aa(lp1105
F0.0003719224814387354
aaa(lp1106
F1200.0
aF1400.0
aF0.011549
a(lp1107
F0.01899985714285714
aa(lp1108
F1.5741675
aa(lp1109
F0.33299695
aa(lp1110
F0.0006482667017156504
aaa(lp1111
F1200.0
aF1700.0
aF0.011203
a(lp1112
F0.018425
aa(lp1113
F1.5741675
aa(lp1114
F0.33299695
aa(lp1115
F0.0006410879535386198
aaa(lp1116
F1200.0
aF1800.0
aF0.011305
a(lp1117
F0.018595023809523808
aa(lp1118
F1.5741675
aa(lp1119
F0.33299695
aa(lp1120
F0.000641207871141337
aaa(lp1121
F1200.0
aF700.0
aF0.011037
a(lp1122
F0.018149940476190476
aa(lp1123
F1.5741675
aa(lp1124
F0.33299695
aa(lp1125
F0.0006342104783421686
aaa(lp1126
F1200.0
aF200.0
aF0.003681
a(lp1127
F0.00601015
aa(lp1128
F1.5741675
aa(lp1129
F0.33299695
aa(lp1130
F0.00036441889877838123
aaa(lp1131
F1200.0
aF1900.0
aF0.011067
a(lp1132
F0.018199190476190476
aa(lp1133
F1.5741675
aa(lp1134
F0.33299695
aa(lp1135
F0.0006339988223985287
aaa(lp1136
F1200.0
aF1200.0
aF0.011917
a(lp1137
F0.019613904761904763
aa(lp1138
F1.5741675
aa(lp1139
F0.33299695
aa(lp1140
F0.0006589419601169144
aaa(lp1141
F1200.0
aF1100.0
aF0.01186
a(lp1142
F0.019518940476190478
aa(lp1143
F1.5741675
aa(lp1144
F0.33299695
aa(lp1145
F0.0006550128307064089
aaa(lp1146
F1200.0
aF1300.0
aF0.011762
a(lp1147
F0.01935477380952381
aa(lp1148
F1.5741675
aa(lp1149
F0.33299695
aa(lp1150
F0.00065431077532236
aaa(lp1151
F1200.0
aF2000.0
aF0.011689
a(lp1152
F0.019234035714285717
aa(lp1153
F1.5741675
aa(lp1154
F0.33299695
aa(lp1155
F0.0006532222156651967
aaa(lp1156
F1200.0
aF800.0
aF0.011117
a(lp1157
F0.018282761904761906
aa(lp1158
F1.5741675
aa(lp1159
F0.33299695
aa(lp1160
F0.0006365240295040356
aaa(lp1161
F1200.0
aF1600.0
aF0.011539
a(lp1162
F0.01898342857142857
aa(lp1163
F1.5741675
aa(lp1164
F0.33299695
aa(lp1165
F0.0006492195078613666
aaa(lp1166
F1200.0
aF1000.0
aF0.011028
a(lp1167
F0.018133619047619048
aa(lp1168
F1.5741675
aa(lp1169
F0.33299695
aa(lp1170
F0.0006348036102471114
aaa(lp1171
F1200.0
aF1500.0
aF0.010819
a(lp1172
F0.017786392857142858
aa(lp1173
F1.5741675
aa(lp1174
F0.33299695
aa(lp1175
F0.0006264991091668431
aaa(lp1176
F1200.0
aF300.0
aF0.005111
a(lp1177
F0.008356217857142858
aa(lp1178
F1.5741675
aa(lp1179
F0.33299695
aa(lp1180
F0.00043093906188310354
aaa(lp1181
F1200.0
aF600.0
aF0.011074
a(lp1182
F0.018210666666666667
aa(lp1183
F1.5741675
aa(lp1184
F0.33299695
aa(lp1185
F0.000633630099643793
aaa(lp1186
F1200.0
aF500.0
aF0.007764
a(lp1187
F0.012726892857142858
aa(lp1188
F1.5741675
aa(lp1189
F0.33299695
aa(lp1190
F0.0005307482791565738
aaa(lp1191
F1200.0
aF900.0
aF0.011295
a(lp1192
F0.01857865476190476
aa(lp1193
F1.5741675
aa(lp1194
F0.33299695
aa(lp1195
F0.0006406431230498858
aaa(lp1196
F1200.0
aF400.0
aF0.005428
a(lp1197
F0.008877229761904762
aa(lp1198
F1.5741675
aa(lp1199
F0.33299695
aa(lp1200
F0.0004433076625476593
aaa(lp1201
F1300.0
aF1600.0
aF0.0082
a(lp1202
F0.013446249999999998
aa(lp1203
F1.5741675
aa(lp1204
F0.33299695
aa(lp1205
F0.00044282882013886387
aaa(lp1206
F1300.0
aF1700.0
aF0.007698
a(lp1207
F0.012616892857142858
aa(lp1208
F1.5741675
aa(lp1209
F0.33299695
aa(lp1210
F0.0004272620540274919
aaa(lp1211
F1300.0
aF900.0
aF0.008093
a(lp1212
F0.013269428571428571
aa(lp1213
F1.5741675
aa(lp1214
F0.33299695
aa(lp1215
F0.00043939458581190584
aaa(lp1216
F1300.0
aF200.0
aF0.002835
a(lp1217
F0.004625461904761905
aa(lp1218
F1.5741675
aa(lp1219
F0.33299695
aa(lp1220
F0.00025979182861993
aaa(lp1221
F1300.0
aF1800.0
aF0.00838
a(lp1222
F0.013744309523809523
aa(lp1223
F1.5741675
aa(lp1224
F0.33299695
aa(lp1225
F0.00044615928386167614
aaa(lp1226
F1300.0
aF1000.0
aF0.007683
a(lp1227
F0.012593130952380953
aa(lp1228
F1.5741675
aa(lp1229
F0.33299695
aa(lp1230
F0.00042917285841910844
aaa(lp1231
F1300.0
aF1400.0
aF0.007684
a(lp1232
F0.012595369047619046
aa(lp1233
F1.5741675
aa(lp1234
F0.33299695
aa(lp1235
F0.00042800789669956816
aaa(lp1236
F1300.0
aF1200.0
aF0.0081
a(lp1237
F0.013281892857142858
aa(lp1238
F1.5741675
aa(lp1239
F0.33299695
aa(lp1240
F0.0004393262015153074
aaa(lp1241
F1300.0
aF500.0
aF0.005153
a(lp1242
F0.008425615476190477
aa(lp1243
F1.5741675
aa(lp1244
F0.33299695
aa(lp1245
F0.0003492529888587317
aaa(lp1246
F1300.0
aF100.0
aF0.002436
a(lp1247
F0.0039725428571428575
aa(lp1248
F1.5741675
aa(lp1249
F0.33299695
aa(lp1250
F0.0002404292151195299
aaa(lp1251
F1300.0
aF1100.0
aF0.008468
a(lp1252
F0.013890273809523809
aa(lp1253
F1.5741675
aa(lp1254
F0.33299695
aa(lp1255
F0.0004497141004114097
aaa(lp1256
F1300.0
aF2000.0
aF0.008062
a(lp1257
F0.013218607142857143
aa(lp1258
F1.5741675
aa(lp1259
F0.33299695
aa(lp1260
F0.0004381927621782414
aaa(lp1261
F1300.0
aF1300.0
aF0.008172
a(lp1262
F0.01340067857142857
aa(lp1263
F1.5741675
aa(lp1264
F0.33299695
aa(lp1265
F0.00044085006655226707
aaa(lp1266
F1300.0
aF1500.0
aF0.007698
a(lp1267
F0.01261760714285714
aa(lp1268
F1.5741675
aa(lp1269
F0.33299695
aa(lp1270
F0.0004290113482898223
aaa(lp1271
F1300.0
aF600.0
aF0.007412
a(lp1272
F0.012145190476190476
aa(lp1273
F1.5741675
aa(lp1274
F0.33299695
aa(lp1275
F0.00042005037625754405
aaa(lp1276
F1300.0
aF300.0
aF0.003182
a(lp1277
F0.005192095238095239
aa(lp1278
F1.5741675
aa(lp1279
F0.33299695
aa(lp1280
F0.00027713354999917895
aaa(lp1281
F1300.0
aF1900.0
aF0.007728
a(lp1282
F0.012667345238095238
aa(lp1283
F1.5741675
aa(lp1284
F0.33299695
aa(lp1285
F0.0004292166109238673
aaa(lp1286
F1300.0
aF400.0
aF0.003832
a(lp1287
F0.006256966666666666
aa(lp1288
F1.5741675
aa(lp1289
F0.33299695
aa(lp1290
F0.0003017377392128902
aaa(lp1291
F1300.0
aF700.0
aF0.008482
a(lp1292
F0.013913357142857144
aa(lp1293
F1.5741675
aa(lp1294
F0.33299695
aa(lp1295
F0.00044951993163178024
aaa(lp1296
F1300.0
aF800.0
aF0.007912
a(lp1297
F0.012971202380952382
aa(lp1298
F1.5741675
aa(lp1299
F0.33299695
aa(lp1300
F0.00043357953497821756
aaa(lp1301
F1400.0
aF1100.0
aF0.005549
a(lp1302
F0.009077079761904762
aa(lp1303
F1.5741675
aa(lp1304
F0.33299695
aa(lp1305
F0.0002954337869116862
aaa(lp1306
F1400.0
aF400.0
aF0.002361
a(lp1307
F0.0038506952380952383
aa(lp1308
F1.5741675
aa(lp1309
F0.33299695
aa(lp1310
F0.0001927758867623407
aaa(lp1311
F1400.0
aF1500.0
aF0.005449
a(lp1312
F0.008912565476190477
aa(lp1313
F1.5741675
aa(lp1314
F0.33299695
aa(lp1315
F0.00029367901516039283
aaa(lp1316
F1400.0
aF1800.0
aF0.005941
a(lp1317
F0.009720863095238093
aa(lp1318
F1.5741675
aa(lp1319
F0.33299695
aa(lp1320
F0.0003055727216369563
aaa(lp1321
F1400.0
aF1600.0
aF0.005575
a(lp1322
F0.009118417857142859
aa(lp1323
F1.5741675
aa(lp1324
F0.33299695
aa(lp1325
F0.0002972519402567367
aaa(lp1326
F1400.0
aF1400.0
aF0.005668
a(lp1327
F0.009272163095238095
aa(lp1328
F1.5741675
aa(lp1329
F0.33299695
aa(lp1330
F0.00029863628539141213
aaa(lp1331
F1400.0
aF600.0
aF0.004172
a(lp1332
F0.006814542857142857
aa(lp1333
F1.5741675
aa(lp1334
F0.33299695
aa(lp1335
F0.00025628729472535643
aaa(lp1336
F1400.0
aF1700.0
aF0.005394
a(lp1337
F0.008822323809523809
aa(lp1338
F1.5741675
aa(lp1339
F0.33299695
aa(lp1340
F0.0002921363079950515
aaa(lp1341
F1400.0
aF900.0
aF0.005456
a(lp1342
F0.008923933333333333
aa(lp1343
F1.5741675
aa(lp1344
F0.33299695
aa(lp1345
F0.0002935758698926394
aaa(lp1346
F1400.0
aF100.0
aF0.001774
a(lp1347
F0.002891077380952381
aa(lp1348
F1.5741675
aa(lp1349
F0.33299695
aa(lp1350
F0.0001663627756718783
aaa(lp1351
F1400.0
aF700.0
aF0.005821
a(lp1352
F0.009524342857142858
aa(lp1353
F1.5741675
aa(lp1354
F0.33299695
aa(lp1355
F0.00030255071162794506
aaa(lp1356
F1400.0
aF2000.0
aF0.005767
a(lp1357
F0.009434511904761906
aa(lp1358
F1.5741675
aa(lp1359
F0.33299695
aa(lp1360
F0.00030015179455276063
aaa(lp1361
F1400.0
aF800.0
aF0.005554
a(lp1362
F0.009085325
aa(lp1363
F1.5741675
aa(lp1364
F0.33299695
aa(lp1365
F0.0002958588903399681
aaa(lp1366
F1400.0
aF1300.0
aF0.005431
a(lp1367
F0.008881804761904763
aa(lp1368
F1.5741675
aa(lp1369
F0.33299695
aa(lp1370
F0.000292983712486399
aaa(lp1371
F1400.0
aF300.0
aF0.002094
a(lp1372
F0.0034130571428571434
aa(lp1373
F1.5741675
aa(lp1374
F0.33299695
aa(lp1375
F0.00018191660395261008
aaa(lp1376
F1400.0
aF1200.0
aF0.005868
a(lp1377
F0.009600595238095238
aa(lp1378
F1.5741675
aa(lp1379
F0.33299695
aa(lp1380
F0.00030405388832705746
aaa(lp1381
F1400.0
aF500.0
aF0.003148
a(lp1382
F0.0051374428571428574
aa(lp1383
F1.5741675
aa(lp1384
F0.33299695
aa(lp1385
F0.00022231890258015498
aaa(lp1386
F1400.0
aF1000.0
aF0.005317
a(lp1387
F0.00869560476190476
aa(lp1388
F1.5741675
aa(lp1389
F0.33299695
aa(lp1390
F0.00029017609889056496
aaa(lp1391
F1400.0
aF200.0
aF0.001706
a(lp1392
F0.0027797583333333334
aa(lp1393
F1.5741675
aa(lp1394
F0.33299695
aa(lp1395
F0.0001632329970865832
aaa(lp1396
F1400.0
aF1900.0
aF0.005493
a(lp1397
F0.008984139285714286
aa(lp1398
F1.5741675
aa(lp1399
F0.33299695
aa(lp1400
F0.0002946015603575096
aaa(lp1401
F1500.0
aF1500.0
aF0.003549
a(lp1402
F0.005793771428571429
aa(lp1403
F1.5741675
aa(lp1404
F0.33299695
aa(lp1405
F0.00053335990580062
aaa(lp1406
F1500.0
aF1100.0
aF0.003055
a(lp1407
F0.004984970238095238
aa(lp1408
F1.5741675
aa(lp1409
F0.33299695
aa(lp1410
F0.000493585699148211
aaa(lp1411
F1500.0
aF1800.0
aF0.003383
a(lp1412
F0.005521169047619048
aa(lp1413
F1.5741675
aa(lp1414
F0.33299695
aa(lp1415
F0.0005240460775382446
aaa(lp1416
F1500.0
aF400.0
aF0.001678
a(lp1417
F0.002734020238095238
aa(lp1418
F1.5741675
aa(lp1419
F0.33299695
aa(lp1420
F0.00036534880283425913
aaa(lp1421
F1500.0
aF200.0
aF0.001253
a(lp1422
F0.0009418389583333332
aa(lp1423
F0.31281535
aa(lp1424
F0.21190715000000002
aa(lp1425
F0.000283975146237405
aaa(lp1426
F1500.0
aF500.0
aF0.001923
a(lp1427
F0.0017384053571428571
aa(lp1428
F0.504541
aa(lp1429
F0.110999
aa(lp1430
F0.0002077791950065045
aaa(lp1431
F1500.0
aF1300.0
aF0.003488
a(lp1432
F0.0056945404761904765
aa(lp1433
F1.5741675
aa(lp1434
F0.33299695
aa(lp1435
F0.000531018573708663
aaa(lp1436
F1500.0
aF600.0
aF0.002102
a(lp1437
F0.0034263738095238095
aa(lp1438
F1.5741675
aa(lp1439
F0.33299695
aa(lp1440
F0.0004124868581703728
aaa(lp1441
F1500.0
aF1000.0
aF0.004037
a(lp1442
F0.006594015476190477
aa(lp1443
F1.5741675
aa(lp1444
F0.33299695
aa(lp1445
F0.0005696362018818073
aaa(lp1446
F1500.0
aF2000.0
aF0.003506
a(lp1447
F0.005722586904761904
aa(lp1448
F1.5741675
aa(lp1449
F0.33299695
aa(lp1450
F0.000533633923583474
aaa(lp1451
F1500.0
aF800.0
aF0.004115
a(lp1452
F0.006721174999999999
aa(lp1453
F1.5741675
aa(lp1454
F0.33299695
aa(lp1455
F0.0005763359468077334
aaa(lp1456
F1500.0
aF1700.0
aF0.003334
a(lp1457
F0.005442190476190476
aa(lp1458
F1.5741675
aa(lp1459
F0.33299695
aa(lp1460
F0.0005119581921174721
aaa(lp1461
F1500.0
aF1200.0
aF0.003818
a(lp1462
F0.0062338559523809536
aa(lp1463
F1.5741675
aa(lp1464
F0.33299695
aa(lp1465
F0.0005553559306882091
aaa(lp1466
F1500.0
aF300.0
aF0.001382
a(lp1467
F0.0022506833333333334
aa(lp1468
F1.5741675
aa(lp1469
F0.33299695
aa(lp1470
F0.00033184512598759584
aaa(lp1471
F1500.0
aF1400.0
aF0.003701
a(lp1472
F0.006042561904761904
aa(lp1473
F1.5741675
aa(lp1474
F0.33299695
aa(lp1475
F0.0005426380614734255
aaa(lp1476
F1500.0
aF100.0
aF0.000973
a(lp1477
F0.0015837726190476187
aa(lp1478
F1.5741675
aa(lp1479
F0.33299695
aa(lp1480
F0.00027997403305248414
aaa(lp1481
F1500.0
aF900.0
aF0.003604
a(lp1482
F0.005884689285714286
aa(lp1483
F1.5741675
aa(lp1484
F0.33299695
aa(lp1485
F0.0005349717075613966
aaa(lp1486
F1500.0
aF700.0
aF0.003357
a(lp1487
F0.005479005952380952
aa(lp1488
F1.5741675
aa(lp1489
F0.33299695
aa(lp1490
F0.0005177174140993115
aaa(lp1491
F1500.0
aF1900.0
aF0.003827
a(lp1492
F0.006249260714285715
aa(lp1493
F1.5741675
aa(lp1494
F0.33299695
aa(lp1495
F0.0005545323201620519
aaa(lp1496
F1500.0
aF1600.0
aF0.003801
a(lp1497
F0.006206335714285714
aa(lp1498
F1.5741675
aa(lp1499
F0.33299695
aa(lp1500
F0.0005507232155000395
aaa(lp1501
F1600.0
aF1500.0
aF0.002518
a(lp1502
F0.004106425
aa(lp1503
F1.5741675
aa(lp1504
F0.33299695
aa(lp1505
F0.0003702638560935319
aaa(lp1506
F1600.0
aF100.0
aF0.000858
a(lp1507
F0.0013975619047619046
aa(lp1508
F1.5741675
aa(lp1509
F0.33299695
aa(lp1510
F0.00021564841183821566
aaa(lp1511
F1600.0
aF1300.0
aF0.002155
a(lp1512
F0.003513273809523809
aa(lp1513
F1.5741675
aa(lp1514
F0.33299695
aa(lp1515
F0.0003380649089347506
aaa(lp1516
F1600.0
aF900.0
aF0.002301
a(lp1517
F0.0037513071428571425
aa(lp1518
F1.5741675
aa(lp1519
F0.33299695
aa(lp1520
F0.00035134205768253625
aaa(lp1521
F1600.0
aF300.0
aF0.000881
a(lp1522
F0.0014351511904761906
aa(lp1523
F1.5741675
aa(lp1524
F0.33299695
aa(lp1525
F0.00021885851697732656
aaa(lp1526
F1600.0
aF500.0
aF0.001384
a(lp1527
F0.002255182142857143
aa(lp1528
F1.5741675
aa(lp1529
F0.33299695
aa(lp1530
F0.0002714920821686557
aaa(lp1531
F1600.0
aF1000.0
aF0.002224
a(lp1532
F0.003626645238095238
aa(lp1533
F1.5741675
aa(lp1534
F0.33299695
aa(lp1535
F0.0003457869815671423
aaa(lp1536
F1600.0
aF1200.0
aF0.002335
a(lp1537
F0.003808167857142857
aa(lp1538
F1.5741675
aa(lp1539
F0.33299695
aa(lp1540
F0.00035206527446340565
aaa(lp1541
F1600.0
aF1800.0
aF0.002449
a(lp1542
F0.003994222619047619
aa(lp1543
F1.5741675
aa(lp1544
F0.33299695
aa(lp1545
F0.0003616199537217287
aaa(lp1546
F1600.0
aF1100.0
aF0.002322
a(lp1547
F0.0037866071428571428
aa(lp1548
F1.5741675
aa(lp1549
F0.33299695
aa(lp1550
F0.00035310294439781103
aaa(lp1551
F1600.0
aF1900.0
aF0.002613
a(lp1552
F0.0042622785714285715
aa(lp1553
F1.5741675
aa(lp1554
F0.33299695
aa(lp1555
F0.00037527265220378567
aaa(lp1556
F1600.0
aF1700.0
aF0.002584
a(lp1557
F0.0042152345238095235
aa(lp1558
F1.5741675
aa(lp1559
F0.33299695
aa(lp1560
F0.0003755229724457175
aaa(lp1561
F1600.0
aF800.0
aF0.002624
a(lp1562
F0.004280621428571429
aa(lp1563
F1.5741675
aa(lp1564
F0.33299695
aa(lp1565
F0.00037543529157934164
aaa(lp1566
F1600.0
aF200.0
aF0.000996
a(lp1567
F0.001621315476190476
aa(lp1568
F1.5741675
aa(lp1569
F0.33299695
aa(lp1570
F0.00023161655847268381
aaa(lp1571
F1600.0
aF1600.0
aF0.002318
a(lp1572
F0.0037800035714285712
aa(lp1573
F1.5741675
aa(lp1574
F0.33299695
aa(lp1575
F0.00035096453587531726
aaa(lp1576
F1600.0
aF2000.0
aF0.002615
a(lp1577
F0.004265185714285714
aa(lp1578
F1.5741675
aa(lp1579
F0.33299695
aa(lp1580
F0.0003740815282741429
aaa(lp1581
F1600.0
aF1400.0
aF0.001998
a(lp1582
F0.0032573
aa(lp1583
F1.5741675
aa(lp1584
F0.33299695
aa(lp1585
F0.00032903693732231487
aaa(lp1586
F1600.0
aF700.0
aF0.001898
a(lp1587
F0.003093303571428572
aa(lp1588
F1.5741675
aa(lp1589
F0.33299695
aa(lp1590
F0.00031904990670821634
aaa(lp1591
F1600.0
aF400.0
aF0.000726
a(lp1592
F0.0011822339285714285
aa(lp1593
F1.5741675
aa(lp1594
F0.33299695
aa(lp1595
F0.00019703898661152812
aaa(lp1596
F1600.0
aF600.0
aF0.001405
a(lp1597
F0.0022895440476190477
aa(lp1598
F1.5741675
aa(lp1599
F0.33299695
aa(lp1600
F0.0002736529055179439
aaa(lp1601
F1700.0
aF900.0
aF0.001429
a(lp1602
F0.0023285761904761905
aa(lp1603
F1.5741675
aa(lp1604
F0.33299695
aa(lp1605
F0.00022511196508714684
aaa(lp1606
F1700.0
aF1500.0
aF0.001394
a(lp1607
F0.0022704309523809522
aa(lp1608
F1.5741675
aa(lp1609
F0.33299695
aa(lp1610
F0.00022480613341065145
aaa(lp1611
F1700.0
aF1800.0
aF0.001626
a(lp1612
F0.00265034880952381
aa(lp1613
F1.5741675
aa(lp1614
F0.33299695
aa(lp1615
F0.00024194260577623756
aaa(lp1616
F1700.0
aF700.0
aF0.000951
a(lp1617
F0.0015481809523809524
aa(lp1618
F1.5741675
aa(lp1619
F0.33299695
aa(lp1620
F0.00018637903769364725
aaa(lp1621
F1700.0
aF500.0
aF0.000634
a(lp1622
F0.0010318284523809524
aa(lp1623
F1.5741675
aa(lp1624
F0.33299695
aa(lp1625
F0.0001505076443919317
aaa(lp1626
F1700.0
aF300.0
aF0.000513
a(lp1627
F0.0008353913095238095
aa(lp1628
F1.5741675
aa(lp1629
F0.33299695
aa(lp1630
F0.0001355183422582913
aaa(lp1631
F1700.0
aF800.0
aF0.001223
a(lp1632
F0.001992877380952381
aa(lp1633
F1.5741675
aa(lp1634
F0.33299695
aa(lp1635
F0.0002100676788685385
aaa(lp1636
F1700.0
aF1300.0
aF0.001406
a(lp1637
F0.0022901464285714286
aa(lp1638
F1.5741675
aa(lp1639
F0.33299695
aa(lp1640
F0.00022565478545678237
aaa(lp1641
F1700.0
aF400.0
aF0.000551
a(lp1642
F0.0008970866666666667
aa(lp1643
F1.5741675
aa(lp1644
F0.33299695
aa(lp1645
F0.00014010139671161105
aaa(lp1646
F1700.0
aF1000.0
aF0.001396
a(lp1647
F0.002275020238095238
aa(lp1648
F1.5741675
aa(lp1649
F0.33299695
aa(lp1650
F0.000222019277369803
aaa(lp1651
F1700.0
aF2000.0
aF0.001319
a(lp1652
F0.0021479166666666665
aa(lp1653
F1.5741675
aa(lp1654
F0.33299695
aa(lp1655
F0.0002203716454799012
aaa(lp1656
F1700.0
aF1600.0
aF0.001195
a(lp1657
F0.0019457083333333336
aa(lp1658
F1.5741675
aa(lp1659
F0.33299695
aa(lp1660
F0.0002074132061736622
aaa(lp1661
F1700.0
aF1400.0
aF0.0014
a(lp1662
F0.002280842857142857
aa(lp1663
F1.5741675
aa(lp1664
F0.33299695
aa(lp1665
F0.0002258370672683759
aaa(lp1666
F1700.0
aF1200.0
aF0.001376
a(lp1667
F0.002241980952380952
aa(lp1668
F1.5741675
aa(lp1669
F0.33299695
aa(lp1670
F0.00022308539135661637
aaa(lp1671
F1700.0
aF100.0
aF0.000563
a(lp1672
F0.0009159964285714286
aa(lp1673
F1.5741675
aa(lp1674
F0.33299695
aa(lp1675
F0.00014134131306891607
aaa(lp1676
F1700.0
aF1700.0
aF0.001479
a(lp1677
F0.0024096059523809523
aa(lp1678
F1.5741675
aa(lp1679
F0.33299695
aa(lp1680
F0.00023079839613798003
aaa(lp1681
F1700.0
aF1900.0
aF0.001359
a(lp1682
F0.0022132238095238094
aa(lp1683
F1.5741675
aa(lp1684
F0.33299695
aa(lp1685
F0.00022243734627052405
aaa(lp1686
F1700.0
aF1100.0
aF0.001816
a(lp1687
F0.0029592761904761906
aa(lp1688
F1.5741675
aa(lp1689
F0.33299695
aa(lp1690
F0.00025375585736568185
aaa(lp1691
F1700.0
aF600.0
aF0.00089
a(lp1692
F0.0014487488095238095
aa(lp1693
F1.5741675
aa(lp1694
F0.33299695
aa(lp1695
F0.0001796951547467426
aaa(lp1696
F1700.0
aF200.0
aF0.00065
a(lp1697
F0.0010574752380952382
aa(lp1698
F1.5741675
aa(lp1699
F0.33299695
aa(lp1700
F0.00015424859929830004
aaa(lp1701
F1800.0
aF600.0
aF0.000335
a(lp1702
F0.0005458042857142858
aa(lp1703
F1.5741675
aa(lp1704
F0.33299695
aa(lp1705
F9.096738532432251e-05
aaa(lp1706
F1800.0
aF1800.0
aF0.000805
a(lp1707
F0.0013105035714285713
aa(lp1708
F1.5741675
aa(lp1709
F0.33299695
aa(lp1710
F0.00013891311580083648
aaa(lp1711
F1800.0
aF400.0
aF0.000312
a(lp1712
F0.0005082788095238096
aa(lp1713
F1.5741675
aa(lp1714
F0.33299695
aa(lp1715
F8.7169102214904e-05
aaa(lp1716
F1800.0
aF1300.0
aF0.000788
a(lp1717
F0.0005913089583333333
aa(lp1718
F0.31281535
aa(lp1719
F0.21190715000000002
aa(lp1720
F0.00012329642958582016
aaa(lp1721
F1800.0
aF1200.0
aF0.000951
a(lp1722
F0.0015481238095238095
aa(lp1723
F1.5741675
aa(lp1724
F0.33299695
aa(lp1725
F0.0001510814192351106
aaa(lp1726
F1800.0
aF1700.0
aF0.000908
a(lp1727
F0.001479047619047619
aa(lp1728
F1.5741675
aa(lp1729
F0.33299695
aa(lp1730
F0.0001494064219221002
aaa(lp1731
F1800.0
aF500.0
aF0.000407
a(lp1732
F0.000662912380952381
aa(lp1733
F1.5741675
aa(lp1734
F0.33299695
aa(lp1735
F9.882114102676714e-05
aaa(lp1736
F1800.0
aF1600.0
aF0.00086
a(lp1737
F0.0014000119047619048
aa(lp1738
F1.5741675
aa(lp1739
F0.33299695
aa(lp1740
F0.00014363814291396711
aaa(lp1741
F1800.0
aF1000.0
aF0.000773
a(lp1742
F0.0012585880952380953
aa(lp1743
F1.5741675
aa(lp1744
F0.33299695
aa(lp1745
F0.00013651300055206423
aaa(lp1746
F1800.0
aF700.0
aF0.000527
a(lp1747
F0.0008576479761904761
aa(lp1748
F1.5741675
aa(lp1749
F0.33299695
aa(lp1750
F0.00011261470594671397
aaa(lp1751
F1800.0
aF200.0
aF0.000332
a(lp1752
F0.0005410710714285715
aa(lp1753
F1.5741675
aa(lp1754
F0.33299695
aa(lp1755
F9.017851249408729e-05
aaa(lp1756
F1800.0
aF800.0
aF0.00083
a(lp1757
F0.0006233335416666667
aa(lp1758
F0.31281535
aa(lp1759
F0.21190715000000002
aa(lp1760
F0.0001272374066023388
aaa(lp1761
F1800.0
aF2000.0
aF0.000984
a(lp1762
F0.0016022535714285714
aa(lp1763
F1.5741675
aa(lp1764
F0.33299695
aa(lp1765
F0.00015417687041062455
aaa(lp1766
F1800.0
aF1100.0
aF0.001037
a(lp1767
F0.001689395238095238
aa(lp1768
F1.5741675
aa(lp1769
F0.33299695
aa(lp1770
F0.00015685638570667583
aaa(lp1771
F1800.0
aF900.0
aF0.000845
a(lp1772
F0.0013756785714285715
aa(lp1773
F1.5741675
aa(lp1774
F0.33299695
aa(lp1775
F0.00014342436991885763
aaa(lp1776
F1800.0
aF1500.0
aF0.000799
a(lp1777
F0.0013004107142857142
aa(lp1778
F1.5741675
aa(lp1779
F0.33299695
aa(lp1780
F0.00013862424333067528
aaa(lp1781
F1800.0
aF1400.0
aF0.000754
a(lp1782
F0.001227138095238095
aa(lp1783
F1.5741675
aa(lp1784
F0.33299695
aa(lp1785
F0.00013469589709370346
aaa(lp1786
F1800.0
aF1900.0
aF0.000757
a(lp1787
F0.001233159523809524
aa(lp1788
F1.5741675
aa(lp1789
F0.33299695
aa(lp1790
F0.00013617965324960873
aaa(lp1791
F1800.0
aF100.0
aF0.000304
a(lp1792
F0.00022809729166666667
aa(lp1793
F0.31281535
aa(lp1794
F0.21190715000000002
aa(lp1795
F7.603244807134794e-05
aaa(lp1796
F1800.0
aF300.0
aF0.000241
a(lp1797
F0.0003914882142857143
aa(lp1798
F1.5741675
aa(lp1799
F0.33299695
aa(lp1800
F7.534193595153479e-05
aaa(lp1801
F1900.0
aF300.0
aF0.000219
a(lp1802
F0.00035588166666666664
aa(lp1803
F1.5741675
aa(lp1804
F0.33299695
aa(lp1805
F5.931361697561664e-05
aaa(lp1806
F1900.0
aF1600.0
aF0.000536
a(lp1807
F0.0008722842857142858
aa(lp1808
F1.5741675
aa(lp1809
F0.33299695
aa(lp1810
F9.298581591539242e-05
aaa(lp1811
F1900.0
aF600.0
aF0.000224
a(lp1812
F0.00036480857142857145
aa(lp1813
F1.5741675
aa(lp1814
F0.33299695
aa(lp1815
F5.9974165356460626e-05
aaa(lp1816
F1900.0
aF1500.0
aF0.000432
a(lp1817
F0.0007026785714285713
aa(lp1818
F1.5741675
aa(lp1819
F0.33299695
aa(lp1820
F8.28114696915328e-05
aaa(lp1821
F1900.0
aF500.0
aF0.000184
a(lp1822
F0.00013811077083333332
aa(lp1823
F0.31281535
aa(lp1824
F0.21190715000000002
aa(lp1825
F4.8829533590793643e-05
aaa(lp1826
F1900.0
aF1700.0
aF0.000597
a(lp1827
F0.0004477583333333334
aa(lp1828
F0.31281535
aa(lp1829
F0.21190715000000002
aa(lp1830
F8.781263592318464e-05
aaa(lp1831
F1900.0
aF1800.0
aF0.000504
a(lp1832
F0.0008208765476190477
aa(lp1833
F1.5741675
aa(lp1834
F0.33299695
aa(lp1835
F9.065064634375027e-05
aaa(lp1836
F1900.0
aF800.0
aF0.000281
a(lp1837
F0.00021074499999999998
aa(lp1838
F0.31281535
aa(lp1839
F0.21190715000000002
aa(lp1840
F6.083686847605013e-05
aaa(lp1841
F1900.0
aF1300.0
aF0.000426
a(lp1842
F0.0006926011904761905
aa(lp1843
F1.5741675
aa(lp1844
F0.33299695
aa(lp1845
F8.337940053218526e-05
aaa(lp1846
F1900.0
aF1000.0
aF0.000514
a(lp1847
F0.0008370217857142857
aa(lp1848
F1.5741675
aa(lp1849
F0.33299695
aa(lp1850
F9.078776239369223e-05
aaa(lp1851
F1900.0
aF1900.0
aF0.000515
a(lp1852
F0.0008388508333333334
aa(lp1853
F1.5741675
aa(lp1854
F0.33299695
aa(lp1855
F9.152612912674264e-05
aaa(lp1856
F1900.0
aF1200.0
aF0.000627
a(lp1857
F0.0010207804761904762
aa(lp1858
F1.5741675
aa(lp1859
F0.33299695
aa(lp1860
F0.00010157143973388638
aaa(lp1861
F1900.0
aF100.0
aF0.000141
a(lp1862
F0.00010609647916666665
aa(lp1863
F0.31281535
aa(lp1864
F0.21190715000000002
aa(lp1865
F4.331370248451022e-05
aaa(lp1866
F1900.0
aF2000.0
aF0.000498
a(lp1867
F0.0008101323809523809
aa(lp1868
F1.5741675
aa(lp1869
F0.33299695
aa(lp1870
F8.946416294386913e-05
aaa(lp1871
F1900.0
aF1100.0
aF0.000691
a(lp1872
F0.0005186272916666666
aa(lp1873
F0.31281535
aa(lp1874
F0.21190715000000002
aa(lp1875
F9.468794691863725e-05
aaa(lp1876
F1900.0
aF900.0
aF0.000489
a(lp1877
F0.00036656458333333335
aa(lp1878
F0.31281535
aa(lp1879
F0.21190715000000002
aa(lp1880
F7.999096628682516e-05
aaa(lp1881
F1900.0
aF200.0
aF0.000148
a(lp1882
F0.00024083130952380952
aa(lp1883
F1.5741675
aa(lp1884
F0.33299695
aa(lp1885
F4.915947428079989e-05
aaa(lp1886
F1900.0
aF400.0
aF0.000193
a(lp1887
F0.00031382857142857144
aa(lp1888
F1.5741675
aa(lp1889
F0.33299695
aa(lp1890
F5.547758275383505e-05
aaa(lp1891
F1900.0
aF700.0
aF0.000222
a(lp1892
F0.00036175892857142857
aa(lp1893
F1.5741675
aa(lp1894
F0.33299695
aa(lp1895
F5.9472787656669735e-05
aaa(lp1896
F1900.0
aF1400.0
aF0.000509
a(lp1897
F0.0008284416666666666
aa(lp1898
F1.5741675
aa(lp1899
F0.33299695
aa(lp1900
F9.03903963529006e-05
aaa(lp1901
F2000.0
aF1500.0
aF0.000309
a(lp1902
F0.00023143875000000003
aa(lp1903
F0.31281535
aa(lp1904
F0.21190715000000002
aa(lp1905
F5.175127480984835e-05
aaa(lp1906
F2000.0
aF1200.0
aF0.000361
a(lp1907
F0.00027071708333333336
aa(lp1908
F0.31281535
aa(lp1909
F0.21190715000000002
aa(lp1910
F5.644841933251e-05
aaa(lp1911
F2000.0
aF1300.0
aF0.000264
a(lp1912
F0.0004301228571428571
aa(lp1913
F1.5741675
aa(lp1914
F0.33299695
aa(lp1915
F5.3765363252881365e-05
aaa(lp1916
F2000.0
aF300.0
aF0.000109
a(lp1917
F8.194635416666667e-05
aa(lp1918
F0.31281535
aa(lp1919
F0.21190715000000002
aa(lp1920
F3.0972805332079446e-05
aaa(lp1921
F2000.0
aF900.0
aF0.000251
a(lp1922
F0.00018859920833333332
aa(lp1923
F0.31281535
aa(lp1924
F0.21190715000000002
aa(lp1925
F4.714981018725786e-05
aaa(lp1926
F2000.0
aF1900.0
aF0.000315
a(lp1927
F0.0005132005952380953
aa(lp1928
F1.5741675
aa(lp1929
F0.33299695
aa(lp1930
F5.886815084299378e-05
aaa(lp1931
F2000.0
aF1600.0
aF0.000354
a(lp1932
F0.000265205
aa(lp1933
F0.31281535
aa(lp1934
F0.21190715000000002
aa(lp1935
F5.5299080292984975e-05
aaa(lp1936
F2000.0
aF500.0
aF0.000118
a(lp1937
F0.00019211130952380951
aa(lp1938
F1.5741675
aa(lp1939
F0.33299695
aa(lp1940
F3.567417191680997e-05
aaa(lp1941
F2000.0
aF600.0
aF0.000111
a(lp1942
F0.0001814136904761905
aa(lp1943
F1.5741675
aa(lp1944
F0.33299695
aa(lp1945
F3.491308856051649e-05
aaa(lp1946
F2000.0
aF200.0
aF0.000155
a(lp1947
F0.00011596518749999999
aa(lp1948
F0.31281535
aa(lp1949
F0.21190715000000002
aa(lp1950
F3.667141304507125e-05
aaa(lp1951
F2000.0
aF1800.0
aF0.000242
a(lp1952
F0.00039376654761904764
aa(lp1953
F1.5741675
aa(lp1954
F0.33299695
aa(lp1955
F5.170406809523185e-05
aaa(lp1956
F2000.0
aF2000.0
aF0.000267
a(lp1957
F0.00043463714285714287
aa(lp1958
F1.5741675
aa(lp1959
F0.33299695
aa(lp1960
F5.350013774962663e-05
aaa(lp1961
F2000.0
aF400.0
aF0.0001
a(lp1962
F0.00016333785714285715
aa(lp1963
F1.5741675
aa(lp1964
F0.33299695
aa(lp1965
F3.334120655317933e-05
aaa(lp1966
F2000.0
aF1100.0
aF0.000296
a(lp1967
F0.0009363858333333334
aa(lp1968
F5.176589999999999
aa(lp1969
F1.0898085
aa(lp1970
F0.00020938214332756375
aaa(lp1971
F2000.0
aF100.0
aF9.7e-05
a(lp1972
F8.761452380952381e-05
aa(lp1973
F0.504541
aa(lp1974
F0.110999
aa(lp1975
F1.7182621705145335e-05
aaa(lp1976
F2000.0
aF1400.0
aF0.000331
a(lp1977
F0.00024841625000000003
aa(lp1978
F0.31281535
aa(lp1979
F0.21190715000000002
aa(lp1980
F5.420887778358408e-05
aaa(lp1981
F2000.0
aF1700.0
aF0.000275
a(lp1982
F0.00020653554166666664
aa(lp1983
F0.31281535
aa(lp1984
F0.21190715000000002
aa(lp1985
F4.8680898318653806e-05
aaa(lp1986
F2000.0
aF700.0
aF0.000173
a(lp1987
F0.00028179309523809526
aa(lp1988
F1.5741675
aa(lp1989
F0.33299695
aa(lp1990
F4.297304104011989e-05
aaa(lp1991
F2000.0
aF1000.0
aF0.000253
a(lp1992
F0.0007992354166666666
aa(lp1993
F5.176589999999999
aa(lp1994
F1.0898085
aa(lp1995
F0.00019384307800096676
aaa(lp1996
F2000.0
aF800.0
aF0.000206
a(lp1997
F0.00018569166666666668
aa(lp1998
F0.504541
aa(lp1999
F0.110999
aa(lp2000
F2.481409049918186e-05
aaa(lp2001
F2100.0
aF200.0
aF8.4e-05
a(lp2002
F6.262391666666666e-05
aa(lp2003
F0.31281535
aa(lp2004
F0.21190715000000002
aa(lp2005
F2.2140893930186688e-05
aaa(lp2006
F2100.0
aF100.0
aF9.3e-05
a(lp2007
F6.987743750000001e-05
aa(lp2008
F0.31281535
aa(lp2009
F0.21190715000000002
aa(lp2010
F2.329247725184631e-05
aaa(lp2011
F2100.0
aF400.0
aF7.4e-05
a(lp2012
F0.00012105821428571427
aa(lp2013
F1.5741675
aa(lp2014
F0.33299695
aa(lp2015
F2.3297661629763744e-05
aaa(lp2016
F2100.0
aF1400.0
aF0.000166
a(lp2017
F0.00012435329166666668
aa(lp2018
F0.31281535
aa(lp2019
F0.21190715000000002
aa(lp2020
F3.108832483380573e-05
aaa(lp2021
F2100.0
aF500.0
aF6.3e-05
a(lp2022
F4.749370833333333e-05
aa(lp2023
F0.31281535
aa(lp2024
F0.21190715000000002
aa(lp2025
F1.938922640783908e-05
aaa(lp2026
F2100.0
aF800.0
aF0.000154
a(lp2027
F0.00011527887500000002
aa(lp2028
F0.31281535
aa(lp2029
F0.21190715000000002
aa(lp2030
F2.9764884523452206e-05
aaa(lp2031
F2100.0
aF300.0
aF0.000125
a(lp2032
F9.362025e-05
aa(lp2033
F0.31281535
aa(lp2034
F0.21190715000000002
aa(lp2035
F2.702583640395489e-05
aaa(lp2036
F2100.0
aF600.0
aF6.8e-05
a(lp2037
F0.00010996796428571429
aa(lp2038
F1.5741675
aa(lp2039
F0.33299695
aa(lp2040
F2.1993589305103018e-05
aaa(lp2041
F2100.0
aF700.0
aF0.000145
a(lp2042
F0.00010871058333333335
aa(lp2043
F0.31281535
aa(lp2044
F0.21190715000000002
aa(lp2045
F2.9054128125123822e-05
aaa(lp2046
F2100.0
aF1000.0
aF0.00019
a(lp2047
F0.0006001264999999999
aa(lp2048
F5.176589999999999
aa(lp2049
F1.0898085
aa(lp2050
F0.00013767844481496244
aaa(lp2051
F2100.0
aF1700.0
aF0.000231
a(lp2052
F0.000173372375
aa(lp2053
F0.31281535
aa(lp2054
F0.21190715000000002
aa(lp2055
F3.696311271239056e-05
aaa(lp2056
F2100.0
aF1800.0
aF0.000184
a(lp2057
F0.00029956988095238094
aa(lp2058
F1.5741675
aa(lp2059
F0.33299695
aa(lp2060
F3.6598287740451465e-05
aaa(lp2061
F2100.0
aF1900.0
aF0.000211
a(lp2062
F0.0001581915
aa(lp2063
F0.31281535
aa(lp2064
F0.21190715000000002
aa(lp2065
F3.537269328953558e-05
aaa(lp2066
F2100.0
aF900.0
aF0.000145
a(lp2067
F0.000108585375
aa(lp2068
F0.31281535
aa(lp2069
F0.21190715000000002
aa(lp2070
F2.9020668819825636e-05
aaa(lp2071
F2100.0
aF2000.0
aF0.000216
a(lp2072
F0.00016218929166666665
aa(lp2073
F0.31281535
aa(lp2074
F0.21190715000000002
aa(lp2075
F3.539260211855328e-05
aaa(lp2076
F2100.0
aF1200.0
aF0.000187
a(lp2077
F0.00014035025
aa(lp2078
F0.31281535
aa(lp2079
F0.21190715000000002
aa(lp2080
F3.308086682661142e-05
aaa(lp2081
F2100.0
aF1500.0
aF0.000196
a(lp2082
F0.0001470168125
aa(lp2083
F0.31281535
aa(lp2084
F0.21190715000000002
aa(lp2085
F3.3727969919061405e-05
aaa(lp2086
F2100.0
aF1100.0
aF0.000165
a(lp2087
F0.00012361054166666667
aa(lp2088
F0.31281535
aa(lp2089
F0.21190715000000002
aa(lp2090
F3.090263186607251e-05
aaa(lp2091
F2100.0
aF1300.0
aF0.000149
a(lp2092
F0.000111464625
aa(lp2093
F0.31281535
aa(lp2094
F0.21190715000000002
aa(lp2095
F2.9790180615617475e-05
aaa(lp2096
F2100.0
aF1600.0
aF0.000187
a(lp2097
F0.0003049859523809524
aa(lp2098
F1.5741675
aa(lp2099
F0.33299695
aa(lp2100
F3.6984978105200725e-05
aaa(lp2101
F2200.0
aF1700.0
aF0.000148
a(lp2102
F0.00011074447916666667
aa(lp2103
F0.31281535
aa(lp2104
F0.21190715000000002
aa(lp2105
F2.4166424208553855e-05
aaa(lp2106
F2200.0
aF1100.0
aF0.000125
a(lp2107
F9.3934375e-05
aa(lp2108
F0.31281535
aa(lp2109
F0.21190715000000002
aa(lp2110
F2.2140541073509878e-05
aaa(lp2111
F2200.0
aF200.0
aF3.3e-05
a(lp2112
F0.00010450400000000001
aa(lp2113
F5.176589999999999
aa(lp2114
F1.0898085
aa(lp2115
F4.673562613253405e-05
aaa(lp2116
F2200.0
aF1800.0
aF9.8e-05
a(lp2117
F0.00015950690476190476
aa(lp2118
F1.5741675
aa(lp2119
F0.33299695
aa(lp2120
F2.1909959916380835e-05
aaa(lp2121
F2200.0
aF900.0
aF0.000112
a(lp2122
F8.407549999999999e-05
aa(lp2123
F0.31281535
aa(lp2124
F0.21190715000000002
aa(lp2125
F2.101887172875842e-05
aaa(lp2126
F2200.0
aF1000.0
aF0.00011
a(lp2127
F0.00017848380952380954
aa(lp2128
F1.5741675
aa(lp2129
F0.33299695
aa(lp2130
F2.3042157951977944e-05
aaa(lp2131
F2200.0
aF1300.0
aF0.000181
a(lp2132
F0.00013607964583333334
aa(lp2133
F0.31281535
aa(lp2134
F0.21190715000000002
aa(lp2135
F2.6687410551502453e-05
aaa(lp2136
F2200.0
aF1900.0
aF8.8e-05
a(lp2137
F0.0001423857142857143
aa(lp2138
F1.5741675
aa(lp2139
F0.33299695
aa(lp2140
F2.0551598411775946e-05
aaa(lp2141
F2200.0
aF1400.0
aF0.000141
a(lp2142
F0.0001053805
aa(lp2143
F0.31281535
aa(lp2144
F0.21190715000000002
aa(lp2145
F2.356378938411411e-05
aaa(lp2146
F2200.0
aF1600.0
aF9.7e-05
a(lp2147
F7.288875e-05
aa(lp2148
F0.31281535
aa(lp2149
F0.21190715000000002
aa(lp2150
F1.9480337531655407e-05
aaa(lp2151
F2200.0
aF800.0
aF7.8e-05
a(lp2152
F0.00012699714285714287
aa(lp2153
F1.5741675
aa(lp2154
F0.33299695
aa(lp2155
F1.959608428422312e-05
aaa(lp2156
F2200.0
aF400.0
aF4.9e-05
a(lp2157
F3.6394458333333334e-05
aa(lp2158
F0.31281535
aa(lp2159
F0.21190715000000002
aa(lp2160
F1.3755811587491142e-05
aaa(lp2161
F2200.0
aF600.0
aF5.1e-05
a(lp2162
F4.621346428571428e-05
aa(lp2163
F0.504541
aa(lp2164
F0.110999
aa(lp2165
F8.30018278696633e-06
aaa(lp2166
F2200.0
aF2000.0
aF0.000117
a(lp2167
F8.786579166666667e-05
aa(lp2168
F0.31281535
aa(lp2169
F0.21190715000000002
aa(lp2170
F2.131058560968651e-05
aaa(lp2171
F2200.0
aF500.0
aF5.3e-05
a(lp2172
F0.00016900616666666666
aa(lp2173
F5.176589999999999
aa(lp2174
F1.0898085
aa(lp2175
F5.975270798140542e-05
aaa(lp2176
F2200.0
aF700.0
aF6.7e-05
a(lp2177
F0.00021155508333333333
aa(lp2178
F5.176589999999999
aa(lp2179
F1.0898085
aa(lp2180
F6.689959827981031e-05
aaa(lp2181
F2200.0
aF300.0
aF7e-05
a(lp2182
F5.255345833333334e-05
aa(lp2183
F0.31281535
aa(lp2184
F0.21190715000000002
aa(lp2185
F1.6618859820580687e-05
aaa(lp2186
F2200.0
aF1200.0
aF0.000172
a(lp2187
F0.00012899275
aa(lp2188
F0.31281535
aa(lp2189
F0.21190715000000002
aa(lp2190
F2.57985484895307e-05
aaa(lp2191
F2200.0
aF1500.0
aF0.000177
a(lp2192
F0.00013288797916666666
aa(lp2193
F0.31281535
aa(lp2194
F0.21190715000000002
aa(lp2195
F2.6577593750814492e-05
aaa(lp2196
F2200.0
aF100.0
aF3.5e-05
a(lp2197
F5.7233035714285715e-05
aa(lp2198
F1.5741675
aa(lp2199
F0.33299695
aa(lp2200
F1.3130159065963581e-05
aaa(lp2201
F2300.0
aF700.0
aF3.2e-05
a(lp2202
F2.4214604166666666e-05
aa(lp2203
F0.31281535
aa(lp2204
F0.21190715000000002
aa(lp2205
F9.152263779615766e-06
aaa(lp2206
F2300.0
aF100.0
aF3.2e-05
a(lp2207
F2.395095833333333e-05
aa(lp2208
F0.31281535
aa(lp2209
F0.21190715000000002
aa(lp2210
F9.052611942755037e-06
aaa(lp2211
F2300.0
aF1800.0
aF8.4e-05
a(lp2212
F6.331245833333333e-05
aa(lp2213
F0.31281535
aa(lp2214
F0.21190715000000002
aa(lp2215
F1.492289063588404e-05
aaa(lp2216
F2300.0
aF1000.0
aF6.5e-05
a(lp2217
F4.8388500000000006e-05
aa(lp2218
F0.31281535
aa(lp2219
F0.21190715000000002
aa(lp2220
F1.2932371165348347e-05
aaa(lp2221
F2300.0
aF1500.0
aF9.7e-05
a(lp2222
F7.291714583333333e-05
aa(lp2223
F0.31281535
aa(lp2224
F0.21190715000000002
aa(lp2225
F1.591182572543662e-05
aaa(lp2226
F2300.0
aF1200.0
aF0.000107
a(lp2227
F8.053002083333333e-05
aa(lp2228
F0.31281535
aa(lp2229
F0.21190715000000002
aa(lp2230
F1.679167312861745e-05
aaa(lp2231
F2300.0
aF500.0
aF3.5e-05
a(lp2232
F0.000111175
aa(lp2233
F5.176589999999999
aa(lp2234
F1.0898085
aa(lp2235
F3.930628483814997e-05
aaa(lp2236
F2300.0
aF1900.0
aF8e-05
a(lp2237
F5.986779166666667e-05
aa(lp2238
F0.31281535
aa(lp2239
F0.21190715000000002
aa(lp2240
F1.4520069623627843e-05
aaa(lp2241
F2300.0
aF1300.0
aF6.3e-05
a(lp2242
F0.00019898325000000002
aa(lp2243
F5.176589999999999
aa(lp2244
F1.0898085
aa(lp2245
F5.3180497156173504e-05
aaa(lp2246
F2300.0
aF1600.0
aF0.000112
a(lp2247
F8.40284375e-05
aa(lp2248
F0.31281535
aa(lp2249
F0.21190715000000002
aa(lp2250
F1.7152234021970562e-05
aaa(lp2251
F2300.0
aF1700.0
aF8.3e-05
a(lp2252
F6.259366666666667e-05
aa(lp2253
F0.31281535
aa(lp2254
F0.21190715000000002
aa(lp2255
F1.4753467400825552e-05
aaa(lp2256
F2300.0
aF1400.0
aF8.8e-05
a(lp2257
F6.58174375e-05
aa(lp2258
F0.31281535
aa(lp2259
F0.21190715000000002
aa(lp2260
F1.5099556767777436e-05
aaa(lp2261
F2300.0
aF1100.0
aF5.1e-05
a(lp2262
F8.320276190476192e-05
aa(lp2263
F1.5741675
aa(lp2264
F0.33299695
aa(lp2265
F1.2838461957811647e-05
aaa(lp2266
F2300.0
aF900.0
aF6e-05
a(lp2267
F4.472533333333333e-05
aa(lp2268
F0.31281535
aa(lp2269
F0.21190715000000002
aa(lp2270
F1.2404574998877542e-05
aaa(lp2271
F2300.0
aF2000.0
aF8e-05
a(lp2272
F5.994979166666666e-05
aa(lp2273
F0.31281535
aa(lp2274
F0.21190715000000002
aa(lp2275
F1.4539960800134382e-05
aaa(lp2276
F2300.0
aF300.0
aF2.8e-05
a(lp2277
F2.09436875e-05
aa(lp2278
F0.31281535
aa(lp2279
F0.21190715000000002
aa(lp2280
F8.550224371649877e-06
aaa(lp2281
F2300.0
aF200.0
aF2.8e-05
a(lp2282
F0.0041274154999999995
aa(lp2283
F336.96265000000005
aa(lp2284
F114.66195
aa(lp2285
F0.0018458365312237158
aaa(lp2286
F2300.0
aF400.0
aF3.3e-05
a(lp2287
F2.4577604166666666e-05
aa(lp2288
F0.31281535
aa(lp2289
F0.21190715000000002
aa(lp2290
F9.289463957893372e-06
aaa(lp2291
F2300.0
aF800.0
aF6e-05
a(lp2292
F4.516164583333334e-05
aa(lp2293
F0.31281535
aa(lp2294
F0.21190715000000002
aa(lp2295
F1.2525588392699695e-05
aaa(lp2296
F2300.0
aF600.0
aF2.8e-05
a(lp2297
F0.0041467974999999995
aa(lp2298
F336.96265000000005
aa(lp2299
F114.66195
aa(lp2300
F0.0018545046508434537
aaa(lp2301
F2400.0
aF1200.0
aF7.4e-05
a(lp2302
F5.551127083333334e-05
aa(lp2303
F0.31281535
aa(lp2304
F0.21190715000000002
aa(lp2305
F1.1331190437730322e-05
aaa(lp2306
F2400.0
aF1500.0
aF4.9e-05
a(lp2307
F3.646714583333333e-05
aa(lp2308
F0.31281535
aa(lp2309
F0.21190715000000002
aa(lp2310
F9.116786638454972e-06
aaa(lp2311
F2400.0
aF1100.0
aF5.8e-05
a(lp2312
F4.3854125e-05
aa(lp2313
F0.31281535
aa(lp2314
F0.21190715000000002
aa(lp2315
F1.006083060686343e-05
aaa(lp2316
F2400.0
aF1600.0
aF4.6e-05
a(lp2317
F3.4830229166666665e-05
aa(lp2318
F0.31281535
aa(lp2319
F0.21190715000000002
aa(lp2320
F8.993127680963455e-06
aaa(lp2321
F2400.0
aF400.0
aF2.4e-05
a(lp2322
F1.82578875e-05
aa(lp2323
F0.31281535
aa(lp2324
F0.21190715000000002
aa(lp2325
F6.45513697784778e-06
aaa(lp2326
F2400.0
aF1300.0
aF6.2e-05
a(lp2327
F4.641891666666667e-05
aa(lp2328
F0.31281535
aa(lp2329
F0.21190715000000002
aa(lp2330
F1.0379581903242112e-05
aaa(lp2331
F2400.0
aF200.0
aF2.4e-05
a(lp2332
F7.4725475e-05
aa(lp2333
F5.176589999999999
aa(lp2334
F1.0898085
aa(lp2335
F2.6419453060197898e-05
aaa(lp2336
F2400.0
aF1700.0
aF5.8e-05
a(lp2337
F4.371052083333333e-05
aa(lp2338
F0.31281535
aa(lp2339
F0.21190715000000002
aa(lp2340
F1.0027882136268299e-05
aaa(lp2341
F2400.0
aF2000.0
aF4.6e-05
a(lp2342
F3.47439375e-05
aa(lp2343
F0.31281535
aa(lp2344
F0.21190715000000002
aa(lp2345
F8.970848815592772e-06
aaa(lp2346
F2400.0
aF600.0
aF1.9e-05
a(lp2347
F1.3985739583333333e-05
aa(lp2348
F0.31281535
aa(lp2349
F0.21190715000000002
aa(lp2350
F5.709653512181511e-06
aaa(lp2351
F2400.0
aF1900.0
aF6.5e-05
a(lp2352
F4.883875e-05
aa(lp2353
F0.31281535
aa(lp2354
F0.21190715000000002
aa(lp2355
F1.0657491170794163e-05
aaa(lp2356
F2400.0
aF700.0
aF3.1e-05
a(lp2357
F2.3238145833333335e-05
aa(lp2358
F0.31281535
aa(lp2359
F0.21190715000000002
aa(lp2360
F7.348548963911175e-06
aaa(lp2361
F2400.0
aF100.0
aF2e-05
a(lp2362
F6.427134166666667e-05
aa(lp2363
F5.176589999999999
aa(lp2364
F1.0898085
aa(lp2365
F2.429228415453031e-05
aaa(lp2366
F2400.0
aF1800.0
aF6.5e-05
a(lp2367
F4.838739583333333e-05
aa(lp2368
F0.31281535
aa(lp2369
F0.21190715000000002
aa(lp2370
F1.055899432290363e-05
aaa(lp2371
F2400.0
aF500.0
aF1.5e-05
a(lp2372
F1.159426875e-05
aa(lp2373
F0.31281535
aa(lp2374
F0.21190715000000002
aa(lp2375
F5.185114076480006e-06
aaa(lp2376
F2400.0
aF900.0
aF2.8e-05
a(lp2377
F2.065516666666667e-05
aa(lp2378
F0.31281535
aa(lp2379
F0.21190715000000002
aa(lp2380
F6.885055777229081e-06
aaa(lp2381
F2400.0
aF1400.0
aF6.8e-05
a(lp2382
F5.098404166666667e-05
aa(lp2383
F0.31281535
aa(lp2384
F0.21190715000000002
aa(lp2385
F1.0869836337953248e-05
aaa(lp2386
F2400.0
aF800.0
aF2.8e-05
a(lp2387
F2.0778352083333334e-05
aa(lp2388
F0.31281535
aa(lp2389
F0.21190715000000002
aa(lp2390
F6.926116787204791e-06
aaa(lp2391
F2400.0
aF300.0
aF3.7e-05
a(lp2392
F2.7852791666666664e-05
aa(lp2393
F0.31281535
aa(lp2394
F0.21190715000000002
aa(lp2395
F8.040411711231653e-06
aaa(lp2396
F2400.0
aF1000.0
aF4e-05
a(lp2397
F2.9917104166666668e-05
aa(lp2398
F0.31281535
aa(lp2399
F0.21190715000000002
aa(lp2400
F8.297511549655515e-06
aaa(lp2401
F2500.0
aF400.0
aF2.3e-05
a(lp2402
F0.003333762
aa(lp2403
F336.96265000000005
aa(lp2404
F114.66195
aa(lp2405
F0.0011112539088795144
aaa(lp2406
F2500.0
aF1300.0
aF4.3e-05
a(lp2407
F3.2267375e-05
aa(lp2408
F0.31281535
aa(lp2409
F0.21190715000000002
aa(lp2410
F7.041318408547901e-06
aaa(lp2411
F2500.0
aF500.0
aF6e-06
a(lp2412
F0.000740332
aa(lp2413
F279.73765000000003
aa(lp2414
F102.25025000000001
aa(lp2415
F0.0005234937917492432
aaa(lp2416
F2500.0
aF900.0
aF2.4e-05
a(lp2417
F1.83255375e-05
aa(lp2418
F0.31281535
aa(lp2419
F0.21190715000000002
aa(lp2420
F5.290126498303756e-06
aaa(lp2421
F2500.0
aF1400.0
aF3.6e-05
a(lp2422
F2.7214020833333333e-05
aa(lp2423
F0.31281535
aa(lp2424
F0.21190715000000002
aa(lp2425
F6.414407408002187e-06
aaa(lp2426
F2500.0
aF200.0
aF2e-05
a(lp2427
F0.0029236595
aa(lp2428
F336.96265000000005
aa(lp2429
F114.66195
aa(lp2430
F0.001033669555515688
aaa(lp2431
F2500.0
aF1900.0
aF3.7e-05
a(lp2432
F2.7453791666666666e-05
aa(lp2433
F0.31281535
aa(lp2434
F0.21190715000000002
aa(lp2435
F6.470919188097537e-06
aaa(lp2436
F2500.0
aF1000.0
aF1.8e-05
a(lp2437
F1.3816125e-05
aa(lp2438
F0.31281535
aa(lp2439
F0.21190715000000002
aa(lp2440
F4.6053750299695105e-06
aaa(lp2441
F2500.0
aF1800.0
aF4.3e-05
a(lp2442
F3.2410875e-05
aa(lp2443
F0.31281535
aa(lp2444
F0.21190715000000002
aa(lp2445
F7.072632848993837e-06
aaa(lp2446
F2500.0
aF1700.0
aF3.9e-05
a(lp2447
F2.8985270833333334e-05
aa(lp2448
F0.31281535
aa(lp2449
F0.21190715000000002
aa(lp2450
F6.649675613433251e-06
aaa(lp2451
F2500.0
aF800.0
aF2.2e-05
a(lp2452
F1.6709216666666666e-05
aa(lp2453
F0.31281535
aa(lp2454
F0.21190715000000002
aa(lp2455
F5.038018221897046e-06
aaa(lp2456
F2500.0
aF700.0
aF2.2e-05
a(lp2457
F1.6728154166666666e-05
aa(lp2458
F0.31281535
aa(lp2459
F0.21190715000000002
aa(lp2460
F5.043728486805284e-06
aaa(lp2461
F2500.0
aF1600.0
aF5.1e-05
a(lp2462
F3.798683333333333e-05
aa(lp2463
F0.31281535
aa(lp2464
F0.21190715000000002
aa(lp2465
F7.59736568014057e-06
aaa(lp2466
F2500.0
aF1100.0
aF3.8e-05
a(lp2467
F2.8657291666666666e-05
aa(lp2468
F0.31281535
aa(lp2469
F0.21190715000000002
aa(lp2470
F6.574430623318899e-06
aaa(lp2471
F2500.0
aF600.0
aF1.4e-05
a(lp2472
F1.081420625e-05
aa(lp2473
F0.31281535
aa(lp2474
F0.21190715000000002
aa(lp2475
F4.087385319492157e-06
aaa(lp2476
F2500.0
aF300.0
aF6e-06
a(lp2477
F9.613494047619046e-06
aa(lp2478
F1.5741675
aa(lp2479
F0.33299695
aa(lp2480
F2.898576797150559e-06
aaa(lp2481
F2500.0
aF2000.0
aF4.9e-05
a(lp2482
F3.7040520833333335e-05
aa(lp2483
F0.31281535
aa(lp2484
F0.21190715000000002
aa(lp2485
F7.560864148142504e-06
aaa(lp2486
F2500.0
aF1200.0
aF3.1e-05
a(lp2487
F2.2883791666666664e-05
aa(lp2488
F0.31281535
aa(lp2489
F0.21190715000000002
aa(lp2490
F5.908568768816466e-06
aaa(lp2491
F2500.0
aF100.0
aF1.3e-05
a(lp2492
F0.0018363605
aa(lp2493
F336.96265000000005
aa(lp2494
F114.66195
aa(lp2495
F0.0008212453957252972
aaa(lp2496
F2500.0
aF1500.0
aF3.9e-05
a(lp2497
F2.8890645833333332e-05
aa(lp2498
F0.31281535
aa(lp2499
F0.21190715000000002
aa(lp2500
F6.627967102865454e-06
aaa(lp2501
F2600.0
aF800.0
aF8e-06
a(lp2502
F0.0009808765
aa(lp2503
F279.73765000000003
aa(lp2504
F102.25025000000001
aa(lp2505
F0.000490438349846339
aaa(lp2506
F2600.0
aF2000.0
aF2.4e-05
a(lp2507
F1.8101597916666667e-05
aa(lp2508
F0.31281535
aa(lp2509
F0.21190715000000002
aa(lp2510
F4.266587320225746e-06
aaa(lp2511
F2600.0
aF900.0
aF1.2e-05
a(lp2512
F0.001681451
aa(lp2513
F336.96265000000005
aa(lp2514
F114.66195
aa(lp2515
F0.0006355287168964121
aaa(lp2516
F2600.0
aF1000.0
aF1.4e-05
a(lp2517
F1.038444375e-05
aa(lp2518
F0.31281535
aa(lp2519
F0.21190715000000002
aa(lp2520
F3.283849499401917e-06
aaa(lp2521
F2600.0
aF200.0
aF8e-06
a(lp2522
F6.0416e-06
aa(lp2523
F0.31281535
aa(lp2524
F0.21190715000000002
aa(lp2525
F2.466473106144345e-06
aaa(lp2526
F2600.0
aF1100.0
aF1.9e-05
a(lp2527
F1.4120710416666666e-05
aa(lp2528
F0.31281535
aa(lp2529
F0.21190715000000002
aa(lp2530
F3.773918512302564e-06
aaa(lp2531
F2600.0
aF1500.0
aF2.4e-05
a(lp2532
F1.7857660416666668e-05
aa(lp2533
F0.31281535
aa(lp2534
F0.21190715000000002
aa(lp2535
F4.209090794043293e-06
aaa(lp2536
F2600.0
aF700.0
aF1.2e-05
a(lp2537
F9.00695625e-06
aa(lp2538
F0.31281535
aa(lp2539
F0.21190715000000002
aa(lp2540
F3.002318982192487e-06
aaa(lp2541
F2600.0
aF1800.0
aF1.6e-05
a(lp2542
F1.2025485416666667e-05
aa(lp2543
F0.31281535
aa(lp2544
F0.21190715000000002
aa(lp2545
F3.4714585271259624e-06
aaa(lp2546
F2600.0
aF1600.0
aF2.7e-05
a(lp2547
F1.9870797916666667e-05
aa(lp2548
F0.31281535
aa(lp2549
F0.21190715000000002
aa(lp2550
F4.443245986419538e-06
aaa(lp2551
F2600.0
aF1400.0
aF2.4e-05
a(lp2552
F1.8076229166666666e-05
aa(lp2553
F0.31281535
aa(lp2554
F0.21190715000000002
aa(lp2555
F4.260607677054739e-06
aaa(lp2556
F2600.0
aF1300.0
aF1.6e-05
a(lp2557
F0.0023760855
aa(lp2558
F336.96265000000005
aa(lp2559
F114.66195
aa(lp2560
F0.000751384222618495
aaa(lp2561
F2600.0
aF600.0
aF1.1e-05
a(lp2562
F8.103804166666666e-06
aa(lp2563
F0.31281535
aa(lp2564
F0.21190715000000002
aa(lp2565
F2.8651272210943013e-06
aaa(lp2566
F2600.0
aF1700.0
aF3.2e-05
a(lp2567
F2.39755625e-05
aa(lp2568
F0.31281535
aa(lp2569
F0.21190715000000002
aa(lp2570
F4.893993448606158e-06
aaa(lp2571
F2600.0
aF400.0
aF1.1e-05
a(lp2572
F0.001651124
aa(lp2573
F336.96265000000005
aa(lp2574
F114.66195
aa(lp2575
F0.0006240663025672833
aaa(lp2576
F2600.0
aF300.0
aF3e-06
a(lp2577
F3.2318183333333335e-05
aa(lp2578
F34.137235000000004
aa(lp2579
F7.55802
aa(lp2580
F1.6159091008538266e-05
aaa(lp2581
F2600.0
aF1900.0
aF1.8e-05
a(lp2582
F1.3146325e-05
aa(lp2583
F0.31281535
aa(lp2584
F0.21190715000000002
aa(lp2585
F3.6461351065584194e-06
aaa(lp2586
F2600.0
aF1200.0
aF1.6e-05
a(lp2587
F2.592484523809524e-05
aa(lp2588
F1.5741675
aa(lp2589
F0.33299695
aa(lp2590
F3.8646476813133e-06
aaa(lp2591
F2600.0
aF100.0
aF7e-06
a(lp2592
F5.047050000000001e-06
aa(lp2593
F0.31281535
aa(lp2594
F0.21190715000000002
aa(lp2595
F2.257108754702696e-06
aaa(lp2596
F2600.0
aF500.0
aF6e-06
a(lp2597
F0.000721107
aa(lp2598
F279.73765000000003
aa(lp2599
F102.25025000000001
aa(lp2600
F0.00041633132839122256
aaa(lp2601
F2700.0
aF1400.0
aF1.4e-05
a(lp2602
F1.0610712499999999e-05
aa(lp2603
F0.31281535
aa(lp2604
F0.21190715000000002
aa(lp2605
F2.6526781540339357e-06
aaa(lp2606
F2700.0
aF1000.0
aF1.1e-05
a(lp2607
F7.886889583333333e-06
aa(lp2608
F0.31281535
aa(lp2609
F0.21190715000000002
aa(lp2610
F2.2767487936626745e-06
aaa(lp2611
F2700.0
aF800.0
aF9e-06
a(lp2612
F6.5660625000000005e-06
aa(lp2613
F0.31281535
aa(lp2614
F0.21190715000000002
aa(lp2615
F2.0763714928665554e-06
aaa(lp2616
F2700.0
aF900.0
aF1.1e-05
a(lp2617
F7.965837499999998e-06
aa(lp2618
F0.31281535
aa(lp2619
F0.21190715000000002
aa(lp2620
F2.299539507041452e-06
aaa(lp2621
F2700.0
aF600.0
aF1e-05
a(lp2622
F7.316102083333334e-06
aa(lp2623
F0.31281535
aa(lp2624
F0.21190715000000002
aa(lp2625
F2.205887993593006e-06
aaa(lp2626
F2700.0
aF1100.0
aF9e-06
a(lp2627
F2.863580833333333e-05
aa(lp2628
F5.176589999999999
aa(lp2629
F1.0898085
aa(lp2630
F8.634021047255123e-06
aaa(lp2631
F2700.0
aF1300.0
aF1.9e-05
a(lp2632
F1.3991916666666666e-05
aa(lp2633
F0.31281535
aa(lp2634
F0.21190715000000002
aa(lp2635
F3.0532868787404975e-06
aaa(lp2636
F2700.0
aF400.0
aF4e-06
a(lp2637
F0.00047447380000000005
aa(lp2638
F279.73765000000003
aa(lp2639
F102.25025000000001
aa(lp2640
F0.0002739375841318602
aaa(lp2641
F2700.0
aF1700.0
aF2.1e-05
a(lp2642
F1.536773125e-05
aa(lp2643
F0.31281535
aa(lp2644
F0.21190715000000002
aa(lp2645
F3.2043942268564755e-06
aaa(lp2646
F2700.0
aF100.0
aF3e-06
a(lp2647
F1.0500375e-05
aa(lp2648
F5.176589999999999
aa(lp2649
F1.0898085
aa(lp2650
F5.250185843271539e-06
aaa(lp2651
F2700.0
aF2000.0
aF2e-05
a(lp2652
F1.4632370833333331e-05
aa(lp2653
F0.31281535
aa(lp2654
F0.21190715000000002
aa(lp2655
F3.1196321954233998e-06
aaa(lp2656
F2700.0
aF1200.0
aF1.4e-05
a(lp2657
F1.0543958333333333e-05
aa(lp2658
F0.31281535
aa(lp2659
F0.21190715000000002
aa(lp2660
F2.6359897268915484e-06
aaa(lp2661
F2700.0
aF700.0
aF5e-06
a(lp2662
F3.923039583333333e-06
aa(lp2663
F0.31281535
aa(lp2664
F0.21190715000000002
aa(lp2665
F1.6015740683864041e-06
aaa(lp2666
F2700.0
aF300.0
aF3e-06
a(lp2667
F0.00047728554999999995
aa(lp2668
F336.96265000000005
aa(lp2669
F114.66195
aa(lp2670
F0.00027556092792701945
aaa(lp2671
F2700.0
aF1800.0
aF1.6e-05
a(lp2672
F1.184806875e-05
aa(lp2673
F0.31281535
aa(lp2674
F0.21190715000000002
aa(lp2675
F2.7926164429119558e-06
aaa(lp2676
F2700.0
aF200.0
aF6e-06
a(lp2677
F4.58603125e-06
aa(lp2678
F0.31281535
aa(lp2679
F0.21190715000000002
aa(lp2680
F1.733356996032394e-06
aaa(lp2681
F2700.0
aF1500.0
aF1.2e-05
a(lp2682
F9.364622916666667e-06
aa(lp2683
F0.31281535
aa(lp2684
F0.21190715000000002
aa(lp2685
F2.5028005147567527e-06
aaa(lp2686
F2700.0
aF500.0
aF6e-06
a(lp2687
F4.6339e-06
aa(lp2688
F0.31281535
aa(lp2689
F0.21190715000000002
aa(lp2690
F1.751449672374605e-06
aaa(lp2691
F2700.0
aF1900.0
aF1.6e-05
a(lp2692
F1.1702327083333334e-05
aa(lp2693
F0.31281535
aa(lp2694
F0.21190715000000002
aa(lp2695
F2.7582648845988506e-06
aaa(lp2696
F2700.0
aF1600.0
aF1.3e-05
a(lp2697
F9.98790625e-06
aa(lp2698
F0.31281535
aa(lp2699
F0.21190715000000002
aa(lp2700
F2.5788662654891157e-06
aaa(lp2701
F2800.0
aF1500.0
aF1.3e-05
a(lp2702
F9.994281249999999e-06
aa(lp2703
F0.31281535
aa(lp2704
F0.21190715000000002
aa(lp2705
F2.083951991476238e-06
aaa(lp2706
F2800.0
aF200.0
aF3e-06
a(lp2707
F2.1674354166666665e-06
aa(lp2708
F0.31281535
aa(lp2709
F0.21190715000000002
aa(lp2710
F9.693060680054686e-07
aaa(lp2711
F2800.0
aF400.0
aF2e-06
a(lp2712
F0.001320103399936592
aa(lp2713
F5221.170000000001
aa(lp2714
F681.3824999999999
aa(lp2715
F0.0006600515076482721
aaa(lp2716
F2800.0
aF900.0
aF3e-06
a(lp2717
F8.5462e-06
aa(lp2718
F5.176589999999999
aa(lp2719
F1.0898085
aa(lp2720
F3.821976837245936e-06
aaa(lp2721
F2800.0
aF600.0
aF4e-06
a(lp2722
F3.0524937499999996e-06
aa(lp2723
F0.31281535
aa(lp2724
F0.21190715000000002
aa(lp2725
F1.1537345009191286e-06
aaa(lp2726
F2800.0
aF1200.0
aF9e-06
a(lp2727
F6.9344208333333334e-06
aa(lp2728
F0.31281535
aa(lp2729
F0.21190715000000002
aa(lp2730
F1.7336049967400943e-06
aaa(lp2731
F2800.0
aF1000.0
aF6e-06
a(lp2732
F4.832410416666668e-06
aa(lp2733
F0.31281535
aa(lp2734
F0.21190715000000002
aa(lp2735
F1.4570264977953483e-06
aaa(lp2736
F2800.0
aF1400.0
aF1e-05
a(lp2737
F7.732618749999999e-06
aa(lp2738
F0.31281535
aa(lp2739
F0.21190715000000002
aa(lp2740
F1.822595447889264e-06
aaa(lp2741
F2800.0
aF800.0
aF3e-06
a(lp2742
F4.444711904761905e-06
aa(lp2743
F1.5741675
aa(lp2744
F0.33299695
aa(lp2745
F1.0476287878335082e-06
aaa(lp2746
F2800.0
aF100.0
aF2e-06
a(lp2747
F0.0002086074
aa(lp2748
F279.73765000000003
aa(lp2749
F102.25025000000001
aa(lp2750
F0.00014750770318868096
aaa(lp2751
F2800.0
aF1100.0
aF6e-06
a(lp2752
F0.0008368375000000001
aa(lp2753
F336.96265000000005
aa(lp2754
F114.66195
aa(lp2755
F0.00029586665070602334
aaa(lp2756
F2800.0
aF1300.0
aF8e-06
a(lp2757
F6.1333499999999995e-06
aa(lp2758
F0.31281535
aa(lp2759
F0.21190715000000002
aa(lp2760
F1.6392067282428617e-06
aaa(lp2761
F2800.0
aF2000.0
aF9e-06
a(lp2762
F6.3864645833333334e-06
aa(lp2763
F0.31281535
aa(lp2764
F0.21190715000000002
aa(lp2765
F1.6489778768056423e-06
aaa(lp2766
F2800.0
aF500.0
aF4e-06
a(lp2767
F0.0005155015000000001
aa(lp2768
F279.73765000000003
aa(lp2769
F102.25025000000001
aa(lp2770
F0.00023053931335023967
aaa(lp2771
F2800.0
aF1900.0
aF9e-06
a(lp2772
F6.436029166666667e-06
aa(lp2773
F0.31281535
aa(lp2774
F0.21190715000000002
aa(lp2775
F1.661775374662091e-06
aaa(lp2776
F2800.0
aF1800.0
aF8e-06
a(lp2777
F0.001222727
aa(lp2778
F336.96265000000005
aa(lp2779
F114.66195
aa(lp2780
F0.0003529708911510976
aaa(lp2781
F2800.0
aF300.0
aF2e-06
a(lp2782
F2.6929083333333334e-06
aa(lp2783
F1.5741675
aa(lp2784
F0.33299695
aa(lp2785
F8.119422907120382e-07
aaa(lp2786
F2800.0
aF700.0
aF3e-06
a(lp2787
F8.562658333333333e-06
aa(lp2788
F5.176589999999999
aa(lp2789
F1.0898085
aa(lp2790
F3.829337591397354e-06
aaa(lp2791
F2800.0
aF1600.0
aF9e-06
a(lp2792
F6.853577083333333e-06
aa(lp2793
F0.31281535
aa(lp2794
F0.21190715000000002
aa(lp2795
F1.7133943072402607e-06
aaa(lp2796
F2800.0
aF1700.0
aF1.1e-05
a(lp2797
F0.0015678755
aa(lp2798
F336.96265000000005
aa(lp2799
F114.66195
aa(lp2800
F0.0004048237579490611
aaa(lp2801
F2900.0
aF1300.0
aF6e-06
a(lp2802
F1.7761058333333333e-05
aa(lp2803
F5.176589999999999
aa(lp2804
F1.0898085
aa(lp2805
F4.440264788150465e-06
aaa(lp2806
F2900.0
aF900.0
aF2e-06
a(lp2807
F1.7051508333333336e-06
aa(lp2808
F0.31281535
aa(lp2809
F0.21190715000000002
aa(lp2810
F6.961248765487411e-07
aaa(lp2811
F2900.0
aF1600.0
aF7e-06
a(lp2812
F4.997281249999999e-06
aa(lp2813
F0.31281535
aa(lp2814
F0.21190715000000002
aa(lp2815
F1.1778706806257544e-06
aaa(lp2816
F2900.0
aF2000.0
aF8e-06
a(lp2817
F5.671960416666667e-06
aa(lp2818
F0.31281535
aa(lp2819
F0.21190715000000002
aa(lp2820
F1.2682889487963257e-06
aaa(lp2821
F2900.0
aF1200.0
aF3e-06
a(lp2822
F9.009941666666667e-06
aa(lp2823
F5.176589999999999
aa(lp2824
F1.0898085
aa(lp2825
F3.18549555712207e-06
aaa(lp2826
F2900.0
aF1700.0
aF4e-06
a(lp2827
F1.2347958333333333e-05
aa(lp2828
F5.176589999999999
aa(lp2829
F1.0898085
aa(lp2830
F3.7230485193961384e-06
aaa(lp2831
F2900.0
aF1100.0
aF3e-06
a(lp2832
F2.534610416666667e-06
aa(lp2833
F0.31281535
aa(lp2834
F0.21190715000000002
aa(lp2835
F8.448701412380221e-07
aaa(lp2836
F2900.0
aF800.0
aF4e-06
a(lp2837
F2.78906875e-06
aa(lp2838
F0.31281535
aa(lp2839
F0.21190715000000002
aa(lp2840
F8.819810797290383e-07
aaa(lp2841
F2900.0
aF600.0
aF2e-06
a(lp2842
F0.0002025048
aa(lp2843
F279.73765000000003
aa(lp2844
F102.25025000000001
aa(lp2845
F0.00011691619862106362
aaa(lp2846
F2900.0
aF100.0
aF2e-06
a(lp2847
F1.3900883333333335e-06
aa(lp2848
F0.31281535
aa(lp2849
F0.21190715000000002
aa(lp2850
F6.216665619414568e-07
aaa(lp2851
F2900.0
aF400.0
aF2e-06
a(lp2852
F1.4177447916666665e-06
aa(lp2853
F0.31281535
aa(lp2854
F0.21190715000000002
aa(lp2855
F6.340346651384465e-07
aaa(lp2856
F2900.0
aF1000.0
aF6e-06
a(lp2857
F4.2393e-06
aa(lp2858
F0.31281535
aa(lp2859
F0.21190715000000002
aa(lp2860
F1.0945826195911896e-06
aaa(lp2861
F2900.0
aF1400.0
aF5e-06
a(lp2862
F3.956829166666667e-06
aa(lp2863
F0.31281535
aa(lp2864
F0.21190715000000002
aa(lp2865
F1.0575068541280372e-06
aaa(lp2866
F2900.0
aF200.0
aF2e-06
a(lp2867
F4.6548375e-06
aa(lp2868
F2.1897075
aa(lp2869
F0.9283549999999999
aa(lp2870
F2.081706031119668e-06
aaa(lp2871
F2900.0
aF500.0
aF3e-06
a(lp2872
F0.00040594409999999997
aa(lp2873
F336.96265000000005
aa(lp2874
F114.66195
aa(lp2875
F0.00016572597865150774
aaa(lp2876
F2900.0
aF1500.0
aF6e-06
a(lp2877
F1.7971258333333333e-05
aa(lp2878
F5.176589999999999
aa(lp2879
F1.0898085
aa(lp2880
F4.4928144791927975e-06
aaa(lp2881
F2900.0
aF1800.0
aF6e-06
a(lp2882
F4.204733333333333e-06
aa(lp2883
F0.31281535
aa(lp2884
F0.21190715000000002
aa(lp2885
F1.0856577627308606e-06
aaa(lp2886
F2900.0
aF300.0
aF3e-06
a(lp2887
F1.9738985416666666e-06
aa(lp2888
F0.31281535
aa(lp2889
F0.21190715000000002
aa(lp2890
F7.460634537915212e-07
aaa(lp2891
F2900.0
aF700.0
aF3e-06
a(lp2892
F2.0943958333333335e-06
aa(lp2893
F0.31281535
aa(lp2894
F0.21190715000000002
aa(lp2895
F8.550338585726039e-07
aaa(lp2896
F2900.0
aF1900.0
aF6e-06
a(lp2897
F4.5026458333333325e-06
aa(lp2898
F0.31281535
aa(lp2899
F0.21190715000000002
aa(lp2900
F1.1256616495668473e-06
aaa(lp2901
F3000.0
aF1900.0
aF3e-06
a(lp2902
F2.17128125e-06
aa(lp2903
F0.31281535
aa(lp2904
F0.21190715000000002
aa(lp2905
F6.267947841111067e-07
aaa(lp2906
F3000.0
aF800.0
aF2e-06
a(lp2907
F1.4376879166666666e-06
aa(lp2908
F0.31281535
aa(lp2909
F0.21190715000000002
aa(lp2910
F5.082995207333741e-07
aaa(lp2911
F3000.0
aF900.0
aF1e-06
a(lp2912
F8.655499999999999e-05
aa(lp2913
F279.73765000000003
aa(lp2914
F102.25025000000001
aa(lp2915
F6.120363551293338e-05
aaa(lp2916
F3000.0
aF1600.0
aF4e-06
a(lp2917
F3.0799979166666664e-06
aa(lp2918
F0.31281535
aa(lp2919
F0.21190715000000002
aa(lp2920
F7.470090825715872e-07
aaa(lp2921
F3000.0
aF700.0
aF1e-06
a(lp2922
F0.0005221059521144815
aa(lp2923
F3456.1555
aa(lp2924
F815.641
aa(lp2925
F0.0002334928859923657
aaa(lp2926
F3000.0
aF600.0
aF2e-06
a(lp2927
F0.00026106105
aa(lp2928
F336.96265000000005
aa(lp2929
F114.66195
aa(lp2930
F0.00010657772985009578
aaa(lp2931
F3000.0
aF1300.0
aF3e-06
a(lp2932
F1.9931552083333333e-06
aa(lp2933
F0.31281535
aa(lp2934
F0.21190715000000002
aa(lp2935
F6.009588331135688e-07
aaa(lp2936
F3000.0
aF500.0
aF1e-06
a(lp2937
F0.0003071864
aa(lp2938
F1907.8305
aa(lp2939
F483.6125
aa(lp2940
F0.0001161055446565753
aaa(lp2941
F3000.0
aF1500.0
aF3e-06
a(lp2942
F1.967322291666667e-06
aa(lp2943
F0.31281535
aa(lp2944
F0.21190715000000002
aa(lp2945
F5.931700383907168e-07
aaa(lp2946
F3000.0
aF1800.0
aF3e-06
a(lp2947
F2.4889125000000005e-06
aa(lp2948
F0.31281535
aa(lp2949
F0.21190715000000002
aa(lp2950
F6.651897703329145e-07
aaa(lp2951
F3000.0
aF2000.0
aF5e-06
a(lp2952
F3.6595270833333333e-06
aa(lp2953
F0.31281535
aa(lp2954
F0.21190715000000002
aa(lp2955
F8.182950389885871e-07
aaa(lp2956
F3000.0
aF100.0
aF0.0
a(lp2957
F0.001022554473939026
aa(lp2958
F103752.20000000001
aa(lp2959
F7976.72
aa(lp2960
F0.000457300265878142
aaa(lp2961
F3000.0
aF1400.0
aF3e-06
a(lp2962
F0.00039102045
aa(lp2963
F336.96265000000005
aa(lp2964
F114.66195
aa(lp2965
F0.00013034014155278488
aaa(lp2966
F3000.0
aF1100.0
aF2e-06
a(lp2967
F1.2382116666666666e-06
aa(lp2968
F0.31281535
aa(lp2969
F0.21190715000000002
aa(lp2970
F4.679999554843283e-07
aaa(lp2971
F3000.0
aF1200.0
aF3e-06
a(lp2972
F2.148504166666667e-06
aa(lp2973
F0.31281535
aa(lp2974
F0.21190715000000002
aa(lp2975
F6.202200200444105e-07
aaa(lp2976
F3000.0
aF1000.0
aF1e-06
a(lp2977
F0.00012947905000000002
aa(lp2978
F279.73765000000003
aa(lp2979
F102.25025000000001
aa(lp2980
F7.47547657343664e-05
aaa(lp2981
F3000.0
aF400.0
aF1e-06
a(lp2982
F0.0005776872715327411
aa(lp2983
F5304.4400000000005
aa(lp2984
F737.245
aa(lp2985
F0.00021834525610319274
aaa(lp2986
F3000.0
aF300.0
aF2e-06
a(lp2987
F1.2693435416666667e-06
aa(lp2988
F0.31281535
aa(lp2989
F0.21190715000000002
aa(lp2990
F4.797667438164324e-07
aaa(lp2991
F3000.0
aF1700.0
aF3e-06
a(lp2992
F2.337997916666667e-06
aa(lp2993
F0.31281535
aa(lp2994
F0.21190715000000002
aa(lp2995
F6.484439173042561e-07
aaa(lp2996
F3000.0
aF200.0
aF2e-06
a(lp2997
F1.8148341666666668e-06
aa(lp2998
F0.31281535
aa(lp2999
F0.21190715000000002
aa(lp3000
F5.739008970051653e-07
aaa.