(lp0
(lp1
F200.0
aF1800.0
aF1.0
a(lp2
F745.52499
aa(lp3
F1319.28
aa(lp4
F127.221418
aa(lp5
F14.116854029846735
aaa(lp6
F200.0
aF700.0
aF1.0
a(lp7
F729.43626
aa(lp8
F1319.28
aa(lp9
F127.221418
aa(lp10
F13.927543602516563
aaa(lp11
F200.0
aF2000.0
aF1.0
a(lp12
F742.1856200000001
aa(lp13
F1319.28
aa(lp14
F127.221418
aa(lp15
F14.081420116593355
aaa(lp16
F200.0
aF1300.0
aF1.0
a(lp17
F731.7222300000001
aa(lp18
F1319.28
aa(lp19
F127.221418
aa(lp20
F13.961011367375933
aaa(lp21
F200.0
aF1400.0
aF1.0
a(lp22
F714.55066
aa(lp23
F1319.28
aa(lp24
F127.221418
aa(lp25
F13.87804066862466
aaa(lp26
F200.0
aF400.0
aF1.0
a(lp27
F732.8402600000001
aa(lp28
F1319.28
aa(lp29
F127.221418
aa(lp30
F14.04898666096598
aaa(lp31
F200.0
aF1900.0
aF1.0
a(lp32
F739.53188
aa(lp33
F1319.28
aa(lp34
F127.221418
aa(lp35
F14.053854474840701
aaa(lp36
F200.0
aF1700.0
aF1.0
a(lp37
F736.2973900000001
aa(lp38
F1319.28
aa(lp39
F127.221418
aa(lp40
F14.04574993013901
aaa(lp41
F200.0
aF500.0
aF1.0
a(lp42
F739.08476
aa(lp43
F1319.28
aa(lp44
F127.221418
aa(lp45
F14.075887254450429
aaa(lp46
F200.0
aF1500.0
aF1.0
a(lp47
F705.61654
aa(lp48
F1319.28
aa(lp49
F127.221418
aa(lp50
F13.709695952135482
aaa(lp51
F200.0
aF100.0
aF1.0
a(lp52
F717.26788
aa(lp53
F1319.28
aa(lp54
F127.221418
aa(lp55
F13.844909176300147
aaa(lp56
F200.0
aF600.0
aF1.0
a(lp57
F722.02589
aa(lp58
F1319.28
aa(lp59
F127.221418
aa(lp60
F13.874857469538203
aaa(lp61
F200.0
aF1000.0
aF1.0
a(lp62
F743.7234
aa(lp63
F1319.28
aa(lp64
F127.221418
aa(lp65
F14.09031886083491
aaa(lp66
F200.0
aF1200.0
aF1.0
a(lp67
F746.68143
aa(lp68
F1319.28
aa(lp69
F127.221418
aa(lp70
F14.136216134454084
aaa(lp71
F200.0
aF300.0
aF1.0
a(lp72
F741.08139
aa(lp73
F1319.28
aa(lp74
F127.221418
aa(lp75
F14.073137862609036
aaa(lp76
F200.0
aF1600.0
aF1.0
a(lp77
F729.2932000000001
aa(lp78
F1319.28
aa(lp79
F127.221418
aa(lp80
F13.934974754193133
aaa(lp81
F200.0
aF900.0
aF1.0
a(lp82
F732.9619299999999
aa(lp83
F1319.28
aa(lp84
F127.221418
aa(lp85
F14.012750707837489
aaa(lp86
F200.0
aF800.0
aF1.0
a(lp87
F704.1891599999999
aa(lp88
F1319.28
aa(lp89
F127.221418
aa(lp90
F13.710454142733566
aaa(lp91
F200.0
aF1100.0
aF1.0
a(lp92
F720.5384799999999
aa(lp93
F1319.28
aa(lp94
F127.221418
aa(lp95
F13.838607079471547
aaa(lp96
F200.0
aF200.0
aF1.0
a(lp97
F734.02867
aa(lp98
F1319.28
aa(lp99
F127.221418
aa(lp100
F13.984671447695865
aaa(lp101
F300.0
aF2000.0
aF0.999997
a(lp102
F289.82069999999993
aa(lp103
F516.58
aa(lp104
F54.743863999999995
aa(lp105
F5.428840019746391
aaa(lp106
F300.0
aF400.0
aF0.999998
a(lp107
F295.16635999999994
aa(lp108
F516.58
aa(lp109
F54.743863999999995
aa(lp110
F5.475439243567588
aaa(lp111
F300.0
aF1000.0
aF0.999996
a(lp112
F286.47857000000005
aa(lp113
F516.58
aa(lp114
F54.743863999999995
aa(lp115
F5.389929649819189
aaa(lp116
F300.0
aF200.0
aF0.999995
a(lp117
F283.15231000000006
aa(lp118
F516.58
aa(lp119
F54.743863999999995
aa(lp120
F5.340594056844238
aaa(lp121
F300.0
aF1600.0
aF0.999995
a(lp122
F282.04854
aa(lp123
F516.58
aa(lp124
F54.743863999999995
aa(lp125
F5.343592529375719
aaa(lp126
F300.0
aF1300.0
aF0.999997
a(lp127
F289.76458
aa(lp128
F516.58
aa(lp129
F54.743863999999995
aa(lp130
F5.41923538149064
aaa(lp131
F300.0
aF800.0
aF0.999997
a(lp132
F289.11253000000005
aa(lp133
F516.58
aa(lp134
F54.743863999999995
aa(lp135
F5.426053909610555
aaa(lp136
F300.0
aF700.0
aF0.999995
a(lp137
F281.68054
aa(lp138
F516.58
aa(lp139
F54.743863999999995
aa(lp140
F5.353942549187468
aaa(lp141
F300.0
aF300.0
aF0.999998
a(lp142
F293.0798
aa(lp143
F516.58
aa(lp144
F54.743863999999995
aa(lp145
F5.4583768438978275
aaa(lp146
F300.0
aF900.0
aF0.999997
a(lp147
F289.43452999999994
aa(lp148
F516.58
aa(lp149
F54.743863999999995
aa(lp150
F5.424462597345474
aaa(lp151
F300.0
aF600.0
aF0.999994
a(lp152
F279.67126
aa(lp153
F516.58
aa(lp154
F54.743863999999995
aa(lp155
F5.337976444309209
aaa(lp156
F300.0
aF1400.0
aF0.999996
a(lp157
F285.56041000000005
aa(lp158
F516.58
aa(lp159
F54.743863999999995
aa(lp160
F5.390813382041712
aaa(lp161
F300.0
aF500.0
aF0.999998
a(lp162
F291.62298
aa(lp163
F516.58
aa(lp164
F54.743863999999995
aa(lp165
F5.4340755193500945
aaa(lp166
F300.0
aF1200.0
aF0.999997
a(lp167
F289.35472000000004
aa(lp168
F516.58
aa(lp169
F54.743863999999995
aa(lp170
F5.41820934811493
aaa(lp171
F300.0
aF100.0
aF0.929051
a(lp172
F24.937566
aa(lp173
F112.60799999999999
aa(lp174
F7.11574
aa(lp175
F1.5899617363320413
aaa(lp176
F300.0
aF1100.0
aF0.999997
a(lp177
F291.34605999999997
aa(lp178
F516.58
aa(lp179
F54.743863999999995
aa(lp180
F5.442158208835903
aaa(lp181
F300.0
aF1900.0
aF0.999996
a(lp182
F286.89602
aa(lp183
F516.58
aa(lp184
F54.743863999999995
aa(lp185
F5.3920575256575285
aaa(lp186
F300.0
aF1500.0
aF0.999996
a(lp187
F286.23499999999996
aa(lp188
F516.58
aa(lp189
F54.743863999999995
aa(lp190
F5.387250579841261
aaa(lp191
F300.0
aF1700.0
aF0.999996
a(lp192
F286.75503
aa(lp193
F516.58
aa(lp194
F54.743863999999995
aa(lp195
F5.3941752455774
aaa(lp196
F300.0
aF1800.0
aF0.999996
a(lp197
F283.88003000000003
aa(lp198
F516.58
aa(lp199
F54.743863999999995
aa(lp200
F5.362911533859196
aaa(lp201
F400.0
aF900.0
aF0.999802
a(lp202
F126.700997
aa(lp203
F235.704
aa(lp204
F28.113567
aa(lp205
F2.4370081944876594
aaa(lp206
F400.0
aF1200.0
aF0.999858
a(lp207
F57.005178
aa(lp208
F110.078
aa(lp209
F7.3977108
aa(lp210
F1.6387838136862347
aaa(lp211
F400.0
aF1500.0
aF0.999792
a(lp212
F126.22310300000001
aa(lp213
F235.704
aa(lp214
F28.113567
aa(lp215
F2.4332239066719694
aaa(lp216
F400.0
aF200.0
aF0.999814
a(lp217
F55.84268899999999
aa(lp218
F110.078
aa(lp219
F7.3977108
aa(lp220
F1.620842980365464
aaa(lp221
F400.0
aF1600.0
aF0.999717
a(lp222
F123.400934
aa(lp223
F235.704
aa(lp224
F28.113567
aa(lp225
F2.410836697082571
aaa(lp226
F400.0
aF500.0
aF0.999797
a(lp227
F126.47065200000002
aa(lp228
F235.704
aa(lp229
F28.113567
aa(lp230
F2.445275370996076
aaa(lp231
F400.0
aF1700.0
aF0.999698
a(lp232
F122.80396899999998
aa(lp233
F235.704
aa(lp234
F28.113567
aa(lp235
F2.4069958786836345
aaa(lp236
F400.0
aF300.0
aF0.999794
a(lp237
F55.407437
aa(lp238
F110.078
aa(lp239
F7.3977108
aa(lp240
F1.614341311185463
aaa(lp241
F400.0
aF1300.0
aF0.999892
a(lp242
F58.15366
aa(lp243
F110.078
aa(lp244
F7.3977108
aa(lp245
F1.6561343209413901
aaa(lp246
F400.0
aF1400.0
aF0.999837
a(lp247
F56.415757
aa(lp248
F110.078
aa(lp249
F7.3977108
aa(lp250
F1.6299416995708773
aaa(lp251
F400.0
aF1100.0
aF0.999607
a(lp252
F52.555758999999995
aa(lp253
F110.078
aa(lp254
F7.3977108
aa(lp255
F1.5739209386115938
aaa(lp256
F400.0
aF800.0
aF0.999768
a(lp257
F54.88890200000001
aa(lp258
F110.078
aa(lp259
F7.3977108
aa(lp260
F1.61020632963605
aaa(lp261
F400.0
aF100.0
aF0.792263
a(lp262
F17.0255315
aa(lp263
F110.078
aa(lp264
F7.3977108
aa(lp265
F0.898573235746536
aaa(lp266
F400.0
aF1000.0
aF0.999752
a(lp267
F124.61422999999999
aa(lp268
F235.704
aa(lp269
F28.113567
aa(lp270
F2.4230082459620315
aaa(lp271
F400.0
aF400.0
aF0.999923
a(lp272
F59.612596
aa(lp273
F110.078
aa(lp274
F7.3977108
aa(lp275
F1.6787290192285353
aaa(lp276
F400.0
aF1800.0
aF0.999753
a(lp277
F124.648891
aa(lp278
F235.704
aa(lp279
F28.113567
aa(lp280
F2.4241399897695675
aaa(lp281
F400.0
aF2000.0
aF0.999585
a(lp282
F119.79267099999998
aa(lp283
F235.704
aa(lp284
F28.113567
aa(lp285
F2.371784043710557
aaa(lp286
F400.0
aF600.0
aF0.999664
a(lp287
F121.79569500000001
aa(lp288
F235.704
aa(lp289
F28.113567
aa(lp290
F2.392755121193976
aaa(lp291
F400.0
aF700.0
aF0.999705
a(lp292
F53.837526000000004
aa(lp293
F110.078
aa(lp294
F7.3977108
aa(lp295
F1.591044845376773
aaa(lp296
F400.0
aF1900.0
aF0.99981
a(lp297
F55.751034
aa(lp298
F110.078
aa(lp299
F7.3977108
aa(lp300
F1.6188652565917894
aaa(lp301
F500.0
aF1700.0
aF0.996109
a(lp302
F25.994139999999998
aa(lp303
F40.6456
aa(lp304
F3.71427414
aa(lp305
F0.7999144072961807
aaa(lp306
F500.0
aF1100.0
aF0.995799
a(lp307
F25.733044
aa(lp308
F40.6456
aa(lp309
F3.71427414
aa(lp310
F0.7948967706564167
aaa(lp311
F500.0
aF300.0
aF0.99479
a(lp312
F24.995112000000002
aa(lp313
F40.6456
aa(lp314
F3.71427414
aa(lp315
F0.7807166970162737
aaa(lp316
F500.0
aF1300.0
aF0.995564
a(lp317
F25.547618
aa(lp318
F40.6456
aa(lp319
F3.71427414
aa(lp320
F0.791436984857291
aaa(lp321
F500.0
aF1800.0
aF0.994915
a(lp322
F25.079545
aa(lp323
F40.6456
aa(lp324
F3.71427414
aa(lp325
F0.7841185420585334
aaa(lp326
F500.0
aF1400.0
aF0.993735
a(lp327
F24.356769999999997
aa(lp328
F40.6456
aa(lp329
F3.71427414
aa(lp330
F0.7702287582270607
aaa(lp331
F500.0
aF600.0
aF0.994973
a(lp332
F25.118944
aa(lp333
F40.6456
aa(lp334
F3.71427414
aa(lp335
F0.7842015187437474
aaa(lp336
F500.0
aF1900.0
aF0.994776
a(lp337
F24.986993000000002
aa(lp338
F40.6456
aa(lp339
F3.71427414
aa(lp340
F0.7839113993303071
aaa(lp341
F500.0
aF1200.0
aF0.994177
a(lp342
F24.611196
aa(lp343
F40.6456
aa(lp344
F3.71427414
aa(lp345
F0.776335691566477
aaa(lp346
F500.0
aF800.0
aF0.995766
a(lp347
F25.705996
aa(lp348
F40.6456
aa(lp349
F3.71427414
aa(lp350
F0.7940611349260207
aaa(lp351
F500.0
aF1000.0
aF0.994703
a(lp352
F24.938348
aa(lp353
F40.6456
aa(lp354
F3.71427414
aa(lp355
F0.7808501693666974
aaa(lp356
F500.0
aF2000.0
aF0.993441
a(lp357
F24.197472
aa(lp358
F40.6456
aa(lp359
F3.71427414
aa(lp360
F0.769434741222412
aaa(lp361
F500.0
aF700.0
aF0.992129
a(lp362
F23.556646
aa(lp363
F40.6456
aa(lp364
F3.71427414
aa(lp365
F0.7571392494118899
aaa(lp366
F500.0
aF100.0
aF0.580567
a(lp367
F6.3006591
aa(lp368
F40.6456
aa(lp369
F3.71427414
aa(lp370
F0.39226194883011534
aaa(lp371
F500.0
aF200.0
aF0.876507
a(lp372
F16.0446574
aa(lp373
F65.918
aa(lp374
F5.114073
aa(lp375
F0.6259616803766825
aaa(lp376
F500.0
aF1500.0
aF0.995892
a(lp377
F25.80968
aa(lp378
F40.6456
aa(lp379
F3.71427414
aa(lp380
F0.7972634087928532
aaa(lp381
F500.0
aF900.0
aF0.996265
a(lp382
F26.131358000000002
aa(lp383
F40.6456
aa(lp384
F3.71427414
aa(lp385
F0.7996068340128166
aaa(lp386
F500.0
aF1600.0
aF0.995451
a(lp387
F25.460747
aa(lp388
F40.6456
aa(lp389
F3.71427414
aa(lp390
F0.7868608924072921
aaa(lp391
F500.0
aF500.0
aF0.996202
a(lp392
F26.074594
aa(lp393
F40.6456
aa(lp394
F3.71427414
aa(lp395
F0.7986178291272991
aaa(lp396
F500.0
aF400.0
aF0.996117
a(lp397
F26.000879
aa(lp398
F40.6456
aa(lp399
F3.71427414
aa(lp400
F0.8005007838846879
aaa(lp401
F600.0
aF200.0
aF0.543316
a(lp402
F3.8069615333333333
aa(lp403
F18.768
aa(lp404
F1.88428282
aa(lp405
F0.18598220906551488
aaa(lp406
F600.0
aF1400.0
aF0.940571
a(lp407
F10.876761333333333
aa(lp408
F18.768
aa(lp409
F1.88428282
aa(lp410
F0.3153015446274319
aaa(lp411
F600.0
aF1900.0
aF0.940393
a(lp412
F13.683808600000003
aa(lp413
F30.3278
aa(lp414
F2.9384317
aa(lp415
F0.35378645555381766
aaa(lp416
F600.0
aF100.0
aF0.432053
a(lp417
F2.8674728666666667
aa(lp418
F18.768
aa(lp419
F1.88428282
aa(lp420
F0.16156379063529194
aaa(lp421
F600.0
aF800.0
aF0.937986
a(lp422
F10.7469754
aa(lp423
F18.768
aa(lp424
F1.88428282
aa(lp425
F0.31272407575298
aaa(lp426
F600.0
aF1200.0
aF0.939155
a(lp427
F10.804986
aa(lp428
F18.768
aa(lp429
F1.88428282
aa(lp430
F0.3134844407267732
aaa(lp431
F600.0
aF600.0
aF0.941042
a(lp432
F10.901014066666665
aa(lp433
F18.768
aa(lp434
F1.88428282
aa(lp435
F0.3158719141958933
aaa(lp436
F600.0
aF1600.0
aF0.950842
a(lp437
F11.449193000000001
aa(lp438
F18.768
aa(lp439
F1.88428282
aa(lp440
F0.32318636687418195
aaa(lp441
F600.0
aF400.0
aF0.927074
a(lp442
F12.933223533333333
aa(lp443
F30.3278
aa(lp444
F2.9384317
aa(lp445
F0.342609463059294
aaa(lp446
F600.0
aF500.0
aF0.934654
a(lp447
F10.586889266666667
aa(lp448
F18.768
aa(lp449
F1.88428282
aa(lp450
F0.3109758395045435
aaa(lp451
F600.0
aF1100.0
aF0.937858
a(lp452
F10.74063813333333
aa(lp453
F18.768
aa(lp454
F1.88428282
aa(lp455
F0.3122753705020974
aaa(lp456
F600.0
aF300.0
aF0.932164
a(lp457
F13.204335266666668
aa(lp458
F30.3278
aa(lp459
F2.9384317
aa(lp460
F0.3456916237856445
aaa(lp461
F600.0
aF1700.0
aF0.934966
a(lp462
F10.601570933333333
aa(lp463
F18.768
aa(lp464
F1.88428282
aa(lp465
F0.31127282259922545
aaa(lp466
F600.0
aF1500.0
aF0.934166
a(lp467
F13.316124466666666
aa(lp468
F30.3278
aa(lp469
F2.9384317
aa(lp470
F0.3486183308114732
aaa(lp471
F600.0
aF1800.0
aF0.92344
a(lp472
F10.097495266666668
aa(lp473
F18.768
aa(lp474
F1.88428282
aa(lp475
F0.30307643407049795
aaa(lp476
F600.0
aF1000.0
aF0.933458
a(lp477
F13.276098333333334
aa(lp478
F30.3278
aa(lp479
F2.9384317
aa(lp480
F0.34650334383507597
aaa(lp481
F600.0
aF2000.0
aF0.934128
a(lp482
F13.313824466666667
aa(lp483
F30.3278
aa(lp484
F2.9384317
aa(lp485
F0.34736972074273964
aaa(lp486
F600.0
aF700.0
aF0.942344
a(lp487
F10.968834933333333
aa(lp488
F18.768
aa(lp489
F1.88428282
aa(lp490
F0.3169072100438515
aaa(lp491
F600.0
aF1300.0
aF0.930111
a(lp492
F10.379938333333332
aa(lp493
F18.768
aa(lp494
F1.88428282
aa(lp495
F0.3063542058177466
aaa(lp496
F600.0
aF900.0
aF0.935026
a(lp497
F10.604373866666666
aa(lp498
F18.768
aa(lp499
F1.88428282
aa(lp500
F0.3109533086065066
aaa(lp501
F700.0
aF2000.0
aF0.847152
a(lp502
F6.385128133333334
aa(lp503
F11.7484
aa(lp504
F1.33514954
aa(lp505
F0.18416935539515436
aaa(lp506
F700.0
aF100.0
aF0.300921
a(lp507
F1.49905536
aa(lp508
F11.7484
aa(lp509
F1.33514954
aa(lp510
F0.08958570039663448
aaa(lp511
F700.0
aF1000.0
aF0.8316
a(lp512
F6.1091542
aa(lp513
F11.7484
aa(lp514
F1.33514954
aa(lp515
F0.1805420401642417
aaa(lp516
F700.0
aF600.0
aF0.849063
a(lp517
F6.420749000000001
aa(lp518
F11.7484
aa(lp519
F1.33514954
aa(lp520
F0.1848127881578184
aaa(lp521
F700.0
aF1400.0
aF0.850018
a(lp522
F6.438705866666666
aa(lp523
F11.7484
aa(lp524
F1.33514954
aa(lp525
F0.18517633146094384
aaa(lp526
F700.0
aF1900.0
aF0.840353
a(lp527
F6.2615430000000005
aa(lp528
F11.7484
aa(lp529
F1.33514954
aa(lp530
F0.18251272527933193
aaa(lp531
F700.0
aF200.0
aF0.405009
a(lp532
F2.1027428
aa(lp533
F11.7484
aa(lp534
F1.33514954
aa(lp535
F0.10580042222137973
aaa(lp536
F700.0
aF400.0
aF0.852023
a(lp537
F6.476764733333334
aa(lp538
F11.7484
aa(lp539
F1.33514954
aa(lp540
F0.1860402249216252
aaa(lp541
F700.0
aF1300.0
aF0.855039
a(lp542
F6.5347554
aa(lp543
F11.7484
aa(lp544
F1.33514954
aa(lp545
F0.18610062308093198
aaa(lp546
F700.0
aF1100.0
aF0.845157
a(lp547
F6.348358800000001
aa(lp548
F11.7484
aa(lp549
F1.33514954
aa(lp550
F0.18356753900888298
aaa(lp551
F700.0
aF800.0
aF0.842889
a(lp552
F6.307155066666667
aa(lp553
F11.7484
aa(lp554
F1.33514954
aa(lp555
F0.18415543989913644
aaa(lp556
F700.0
aF1500.0
aF0.849857
a(lp557
F6.435714333333332
aa(lp558
F11.7484
aa(lp559
F1.33514954
aa(lp560
F0.18562847698202628
aaa(lp561
F700.0
aF1600.0
aF0.826766
a(lp562
F6.027965733333333
aa(lp563
F11.7484
aa(lp564
F1.33514954
aa(lp565
F0.1794005897426204
aaa(lp566
F700.0
aF1800.0
aF0.842346
a(lp567
F6.297288066666667
aa(lp568
F11.7484
aa(lp569
F1.33514954
aa(lp570
F0.18308853972266473
aaa(lp571
F700.0
aF1200.0
aF0.851557
a(lp572
F6.4679082
aa(lp573
F11.7484
aa(lp574
F1.33514954
aa(lp575
F0.1864020049963698
aaa(lp576
F700.0
aF700.0
aF0.842277
a(lp577
F6.296050666666667
aa(lp578
F11.7484
aa(lp579
F1.33514954
aa(lp580
F0.1830525803029161
aaa(lp581
F700.0
aF900.0
aF0.838693
a(lp582
F6.232139800000001
aa(lp583
F11.7484
aa(lp584
F1.33514954
aa(lp585
F0.1827457389684124
aaa(lp586
F700.0
aF300.0
aF0.690661
a(lp587
F4.294951
aa(lp588
F11.7484
aa(lp589
F1.33514954
aa(lp590
F0.151002437787533
aaa(lp591
F700.0
aF500.0
aF0.843183
a(lp592
F6.312394466666667
aa(lp593
F11.7484
aa(lp594
F1.33514954
aa(lp595
F0.1829871288734083
aaa(lp596
F700.0
aF1700.0
aF0.839153
a(lp597
F6.2402511333333335
aa(lp598
F11.7484
aa(lp599
F1.33514954
aa(lp600
F0.18259148112049967
aaa(lp601
F800.0
aF300.0
aF0.443723
a(lp602
F1.7277554
aa(lp603
F6.2008
aa(lp604
F0.82986346
aa(lp605
F0.07448880622840813
aaa(lp606
F800.0
aF100.0
aF0.243512
a(lp607
F0.86359572
aa(lp608
F6.2008
aa(lp609
F0.82986346
aa(lp610
F0.05285119971307284
aaa(lp611
F800.0
aF1800.0
aF0.743701
a(lp612
F3.6953225999999995
aa(lp613
F6.2008
aa(lp614
F0.82986346
aa(lp615
F0.10935011576481196
aaa(lp616
F800.0
aF800.0
aF0.735559
a(lp617
F3.6197032000000005
aa(lp618
F6.2008
aa(lp619
F0.82986346
aa(lp620
F0.10806288913817219
aaa(lp621
F800.0
aF400.0
aF0.733363
a(lp622
F3.5996824666666667
aa(lp623
F6.2008
aa(lp624
F0.82986346
aa(lp625
F0.10819083087047832
aaa(lp626
F800.0
aF200.0
aF0.304129
a(lp627
F1.1055344066666668
aa(lp628
F6.2008
aa(lp629
F0.82986346
aa(lp630
F0.0597804566355557
aaa(lp631
F800.0
aF1700.0
aF0.727669
a(lp632
F3.548397066666667
aa(lp633
F6.2008
aa(lp634
F0.82986346
aa(lp635
F0.10703684813080856
aaa(lp636
F800.0
aF600.0
aF0.741772
a(lp637
F3.6771940000000005
aa(lp638
F6.2008
aa(lp639
F0.82986346
aa(lp640
F0.10876608969098166
aaa(lp641
F800.0
aF1600.0
aF0.732749
a(lp642
F3.5940904000000002
aa(lp643
F6.2008
aa(lp644
F0.82986346
aa(lp645
F0.10768279158920632
aaa(lp646
F800.0
aF1000.0
aF0.719442
a(lp647
F3.4759731333333335
aa(lp648
F6.2008
aa(lp649
F0.82986346
aa(lp650
F0.10581950931237166
aaa(lp651
F800.0
aF1100.0
aF0.730913
a(lp652
F3.5774859333333335
aa(lp653
F6.2008
aa(lp654
F0.82986346
aa(lp655
F0.10747514964451602
aaa(lp656
F800.0
aF1500.0
aF0.747254
a(lp657
F3.7289808000000004
aa(lp658
F6.2008
aa(lp659
F0.82986346
aa(lp660
F0.10958113396018493
aaa(lp661
F800.0
aF1400.0
aF0.733256
a(lp662
F3.5986995999999998
aa(lp663
F6.2008
aa(lp664
F0.82986346
aa(lp665
F0.10791782569261772
aaa(lp666
F800.0
aF1200.0
aF0.738984
a(lp667
F3.6512561333333333
aa(lp668
F6.2008
aa(lp669
F0.82986346
aa(lp670
F0.10861832896277988
aaa(lp671
F800.0
aF900.0
aF0.748377
a(lp672
F3.739704933333333
aa(lp673
F6.2008
aa(lp674
F0.82986346
aa(lp675
F0.10961267963961915
aaa(lp676
F800.0
aF1300.0
aF0.737577
a(lp677
F3.6382335333333335
aa(lp678
F6.2008
aa(lp679
F0.82986346
aa(lp680
F0.10813529352929442
aaa(lp681
F800.0
aF2000.0
aF0.710103
a(lp682
F3.396034333333333
aa(lp683
F6.2008
aa(lp684
F0.82986346
aa(lp685
F0.10450571665384306
aaa(lp686
F800.0
aF500.0
aF0.719249
a(lp687
F3.4743002666666674
aa(lp688
F6.2008
aa(lp689
F0.82986346
aa(lp690
F0.10576859533907028
aaa(lp691
F800.0
aF1900.0
aF0.723939
a(lp692
F3.515321533333333
aa(lp693
F6.2008
aa(lp694
F0.82986346
aa(lp695
F0.10652489445091123
aaa(lp696
F800.0
aF700.0
aF0.714029
a(lp697
F3.4293674666666667
aa(lp698
F6.2008
aa(lp699
F0.82986346
aa(lp700
F0.10528252337823639
aaa(lp701
F900.0
aF200.0
aF0.22432
a(lp702
F0.5530364566666667
aa(lp703
F3.01392
aa(lp704
F0.44629673799999997
aa(lp705
F0.023538795506331433
aaa(lp706
F900.0
aF1100.0
aF0.617317
a(lp707
F1.9920246333333333
aa(lp708
F3.01392
aa(lp709
F0.44629673799999997
aa(lp710
F0.04471101799333135
aaa(lp711
F900.0
aF300.0
aF0.307499
a(lp712
F0.7914553000000001
aa(lp713
F3.01392
aa(lp714
F0.44629673799999997
aa(lp715
F0.02814091748089722
aaa(lp716
F900.0
aF1000.0
aF0.622022
a(lp717
F2.0165303666666667
aa(lp718
F3.01392
aa(lp719
F0.44629673799999997
aa(lp720
F0.04505720285247287
aaa(lp721
F900.0
aF900.0
aF0.619801
a(lp722
F2.0049268666666666
aa(lp723
F3.01392
aa(lp724
F0.44629673799999997
aa(lp725
F0.04477560439445669
aaa(lp726
F900.0
aF1600.0
aF0.616825
a(lp727
F1.9894831333333332
aa(lp728
F3.01392
aa(lp729
F0.44629673799999997
aa(lp730
F0.04474421284739886
aaa(lp731
F900.0
aF700.0
aF0.614232
a(lp732
F1.9761117
aa(lp733
F3.01392
aa(lp734
F0.44629673799999997
aa(lp735
F0.044432245873164376
aaa(lp736
F900.0
aF1900.0
aF0.616178
a(lp737
F1.9861389333333335
aa(lp738
F3.01392
aa(lp739
F0.44629673799999997
aa(lp740
F0.044805196424819595
aaa(lp741
F900.0
aF500.0
aF0.612005
a(lp742
F1.9647014
aa(lp743
F3.01392
aa(lp744
F0.44629673799999997
aa(lp745
F0.044434798925566836
aaa(lp746
F900.0
aF1400.0
aF0.607673
a(lp747
F1.9426812
aa(lp748
F3.01392
aa(lp749
F0.44629673799999997
aa(lp750
F0.04422042018243508
aaa(lp751
F900.0
aF1200.0
aF0.625789
a(lp752
F2.036360966666667
aa(lp753
F3.01392
aa(lp754
F0.44629673799999997
aa(lp755
F0.04521898529501863
aaa(lp756
F900.0
aF1500.0
aF0.616361
a(lp757
F1.9870842333333334
aa(lp758
F3.01392
aa(lp759
F0.44629673799999997
aa(lp760
F0.044701584635098664
aaa(lp761
F900.0
aF800.0
aF0.608684
a(lp762
F1.9477986999999999
aa(lp763
F3.01392
aa(lp764
F0.44629673799999997
aa(lp765
F0.044325428568461445
aaa(lp766
F900.0
aF400.0
aF0.499319
a(lp767
F1.4552391333333332
aa(lp768
F3.01392
aa(lp769
F0.44629673799999997
aa(lp770
F0.03820329309540388
aaa(lp771
F900.0
aF100.0
aF0.184197
a(lp772
F0.4456007733333333
aa(lp773
F3.01392
aa(lp774
F0.44629673799999997
aa(lp775
F0.021171130405971874
aaa(lp776
F900.0
aF600.0
aF0.617988
a(lp777
F1.9955053
aa(lp778
F3.01392
aa(lp779
F0.44629673799999997
aa(lp780
F0.04487966084740145
aaa(lp781
F900.0
aF1800.0
aF0.621574
a(lp782
F2.0141836
aa(lp783
F3.01392
aa(lp784
F0.44629673799999997
aa(lp785
F0.044948712736480746
aaa(lp786
F900.0
aF2000.0
aF0.614359
a(lp787
F1.9767710333333333
aa(lp788
F3.01392
aa(lp789
F0.44629673799999997
aa(lp790
F0.04470777077620598
aaa(lp791
F900.0
aF1700.0
aF0.614227
a(lp792
F1.9760864
aa(lp793
F3.01392
aa(lp794
F0.44629673799999997
aa(lp795
F0.044454166921298464
aaa(lp796
F900.0
aF1300.0
aF0.623007
a(lp797
F2.0216954
aa(lp798
F3.01392
aa(lp799
F0.44629673799999997
aa(lp800
F0.0449932688916415
aaa(lp801
F1000.0
aF1600.0
aF0.424164
a(lp802
F1.1716299666666667
aa(lp803
F3.01392
aa(lp804
F0.44629673799999997
aa(lp805
F0.02728412531939487
aaa(lp806
F1000.0
aF1400.0
aF0.426006
a(lp807
F1.49032364
aa(lp808
F5.1888000000000005
aa(lp809
F0.5894283600000001
aa(lp810
F0.03376650671893674
aaa(lp811
F1000.0
aF1500.0
aF0.424032
a(lp812
F1.1711645999999998
aa(lp813
F3.01392
aa(lp814
F0.44629673799999997
aa(lp815
F0.027355006163812538
aaa(lp816
F1000.0
aF700.0
aF0.429727
a(lp817
F1.5065644
aa(lp818
F5.1888000000000005
aa(lp819
F0.5894283600000001
aa(lp820
F0.033926114896934485
aaa(lp821
F1000.0
aF1900.0
aF0.422715
a(lp822
F1.47603328
aa(lp823
F5.1888000000000005
aa(lp824
F0.5894283600000001
aa(lp825
F0.03355488595122922
aaa(lp826
F1000.0
aF1800.0
aF0.425672
a(lp827
F1.1769805333333334
aa(lp828
F3.01392
aa(lp829
F0.44629673799999997
aa(lp830
F0.027305261438452154
aaa(lp831
F1000.0
aF500.0
aF0.425053
a(lp832
F1.1747817333333335
aa(lp833
F3.01392
aa(lp834
F0.44629673799999997
aa(lp835
F0.02735752003055508
aaa(lp836
F1000.0
aF1000.0
aF0.427875
a(lp837
F1.49847116
aa(lp838
F5.1888000000000005
aa(lp839
F0.5894283600000001
aa(lp840
F0.033907610661914826
aaa(lp841
F1000.0
aF200.0
aF0.133586
a(lp842
F0.41020858800000004
aa(lp843
F5.1888000000000005
aa(lp844
F0.5894283600000001
aa(lp845
F0.01775146138885472
aaa(lp846
F1000.0
aF1100.0
aF0.421783
a(lp847
F1.4719963200000001
aa(lp848
F5.1888000000000005
aa(lp849
F0.5894283600000001
aa(lp850
F0.03365496563658921
aaa(lp851
F1000.0
aF2000.0
aF0.430232
a(lp852
F1.5087770000000003
aa(lp853
F5.1888000000000005
aa(lp854
F0.5894283600000001
aa(lp855
F0.034053759921629796
aaa(lp856
F1000.0
aF1700.0
aF0.432175
a(lp857
F1.51729804
aa(lp858
F5.1888000000000005
aa(lp859
F0.5894283600000001
aa(lp860
F0.03386017474260876
aaa(lp861
F1000.0
aF800.0
aF0.415835
a(lp862
F1.1423126333333333
aa(lp863
F3.01392
aa(lp864
F0.44629673799999997
aa(lp865
F0.027022319252384276
aaa(lp866
F1000.0
aF1300.0
aF0.433074
a(lp867
F1.5212457599999998
aa(lp868
F5.1888000000000005
aa(lp869
F0.5894283600000001
aa(lp870
F0.03404164104152443
aaa(lp871
F1000.0
aF400.0
aF0.26682
a(lp872
F0.862360804
aa(lp873
F5.1888000000000005
aa(lp874
F0.5894283600000001
aa(lp875
F0.025597118187796062
aaa(lp876
F1000.0
aF300.0
aF0.176847
a(lp877
F0.551444228
aa(lp878
F5.1888000000000005
aa(lp879
F0.5894283600000001
aa(lp880
F0.020551111479430985
aaa(lp881
F1000.0
aF600.0
aF0.430737
a(lp882
F1.5109868400000002
aa(lp883
F5.1888000000000005
aa(lp884
F0.5894283600000001
aa(lp885
F0.033956899646463604
aaa(lp886
F1000.0
aF1200.0
aF0.424021
a(lp887
F1.48169772
aa(lp888
F5.1888000000000005
aa(lp889
F0.5894283600000001
aa(lp890
F0.033701083068649294
aaa(lp891
F1000.0
aF100.0
aF0.109424
a(lp892
F0.25625787333333333
aa(lp893
F3.01392
aa(lp894
F0.44629673799999997
aa(lp895
F0.012780981787188513
aaa(lp896
F1000.0
aF900.0
aF0.445076
a(lp897
F1.57448616
aa(lp898
F5.1888000000000005
aa(lp899
F0.5894283600000001
aa(lp900
F0.03486826701744725
aaa(lp901
F1100.0
aF1300.0
aF0.345681
a(lp902
F0.5860332533333333
aa(lp903
F1.08698
aa(lp904
F0.199501126
aa(lp905
F0.009816428261960775
aaa(lp906
F1100.0
aF1800.0
aF0.342415
a(lp907
F0.5789106133333333
aa(lp908
F1.08698
aa(lp909
F0.199501126
aa(lp910
F0.009768645123841664
aaa(lp911
F1100.0
aF2000.0
aF0.345178
a(lp912
F0.8992802199999999
aa(lp913
F2.96654
aa(lp914
F0.424006978
aa(lp915
F0.021091041635727715
aaa(lp916
F1100.0
aF700.0
aF0.340594
a(lp917
F0.8849534279999999
aa(lp918
F2.96654
aa(lp919
F0.424006978
aa(lp920
F0.02091673768827252
aaa(lp921
F1100.0
aF900.0
aF0.349837
a(lp922
F0.5951596533333333
aa(lp923
F1.08698
aa(lp924
F0.199501126
aa(lp925
F0.009900095828941366
aaa(lp926
F1100.0
aF200.0
aF0.108257
a(lp927
F0.15402922133333333
aa(lp928
F1.08698
aa(lp929
F0.199501126
aa(lp930
F0.005026552930631929
aaa(lp931
F1100.0
aF1900.0
aF0.346638
a(lp932
F0.5881299333333334
aa(lp933
F1.08698
aa(lp934
F0.199501126
aa(lp935
F0.009826764766584053
aaa(lp936
F1100.0
aF1500.0
aF0.35145
a(lp937
F0.5987185200000001
aa(lp938
F1.08698
aa(lp939
F0.199501126
aa(lp940
F0.00990598842003047
aaa(lp941
F1100.0
aF800.0
aF0.34197
a(lp942
F0.5779418533333334
aa(lp943
F1.08698
aa(lp944
F0.199501126
aa(lp945
F0.009746747642162488
aaa(lp946
F1100.0
aF500.0
aF0.290529
a(lp947
F0.733928804
aa(lp948
F2.96654
aa(lp949
F0.424006978
aa(lp950
F0.019019829105436252
aaa(lp951
F1100.0
aF1700.0
aF0.354668
a(lp952
F0.92921748
aa(lp953
F2.96654
aa(lp954
F0.424006978
aa(lp955
F0.021368391838414047
aaa(lp956
F1100.0
aF400.0
aF0.17961
a(lp957
F0.26816006666666664
aa(lp958
F1.08698
aa(lp959
F0.199501126
aa(lp960
F0.006625782260231618
aaa(lp961
F1100.0
aF600.0
aF0.347773
a(lp962
F0.5906185333333333
aa(lp963
F1.08698
aa(lp964
F0.199501126
aa(lp965
F0.009864213514855944
aaa(lp966
F1100.0
aF1400.0
aF0.348592
a(lp967
F0.91000512
aa(lp968
F2.96654
aa(lp969
F0.424006978
aa(lp970
F0.021128652780525312
aaa(lp971
F1100.0
aF100.0
aF0.093965
a(lp972
F0.13246294933333333
aa(lp973
F1.08698
aa(lp974
F0.199501126
aa(lp975
F0.004677428746651306
aaa(lp976
F1100.0
aF1100.0
aF0.337432
a(lp977
F0.5681196266666667
aa(lp978
F1.08698
aa(lp979
F0.199501126
aa(lp980
F0.009636066902585883
aaa(lp981
F1100.0
aF1000.0
aF0.354061
a(lp982
F0.9272891600000001
aa(lp983
F2.96654
aa(lp984
F0.424006978
aa(lp985
F0.02131276455835798
aaa(lp986
F1100.0
aF300.0
aF0.129071
a(lp987
F0.1861777933333333
aa(lp988
F1.08698
aa(lp989
F0.199501126
aa(lp990
F0.0055384551861407064
aaa(lp991
F1100.0
aF1200.0
aF0.35111
a(lp992
F0.917947756
aa(lp993
F2.96654
aa(lp994
F0.424006978
aa(lp995
F0.021221745911210985
aaa(lp996
F1100.0
aF1600.0
aF0.343085
a(lp997
F0.89272706
aa(lp998
F2.96654
aa(lp999
F0.424006978
aa(lp1000
F0.020943112464005917
aaa(lp1001
F1200.0
aF100.0
aF0.065957
a(lp1002
F0.091339992
aa(lp1003
F1.08698
aa(lp1004
F0.199501126
aa(lp1005
F0.003123762423744802
aaa(lp1006
F1200.0
aF1400.0
aF0.258617
a(lp1007
F0.40898937333333335
aa(lp1008
F1.08698
aa(lp1009
F0.199501126
aa(lp1010
F0.006614696213063084
aaa(lp1011
F1200.0
aF1700.0
aF0.257694
a(lp1012
F0.40724597333333334
aa(lp1013
F1.08698
aa(lp1014
F0.199501126
aa(lp1015
F0.0066229798288484415
aaa(lp1016
F1200.0
aF1800.0
aF0.262671
a(lp1017
F0.41668578666666667
aa(lp1018
F1.08698
aa(lp1019
F0.199501126
aa(lp1020
F0.0066757346688502296
aaa(lp1021
F1200.0
aF700.0
aF0.260993
a(lp1022
F0.41349400000000003
aa(lp1023
F1.08698
aa(lp1024
F0.199501126
aa(lp1025
F0.006651115027655973
aaa(lp1026
F1200.0
aF200.0
aF0.072609
a(lp1027
F0.100973864
aa(lp1028
F1.08698
aa(lp1029
F0.199501126
aa(lp1030
F0.0032916549191351553
aaa(lp1031
F1200.0
aF1900.0
aF0.257295
a(lp1032
F0.4064912666666667
aa(lp1033
F1.08698
aa(lp1034
F0.199501126
aa(lp1035
F0.006582905552346252
aaa(lp1036
F1200.0
aF1200.0
aF0.262849
a(lp1037
F0.41702496
aa(lp1038
F1.08698
aa(lp1039
F0.199501126
aa(lp1040
F0.006677745357362601
aaa(lp1041
F1200.0
aF1100.0
aF0.261314
a(lp1042
F0.41410426666666666
aa(lp1043
F1.08698
aa(lp1044
F0.199501126
aa(lp1045
F0.006667834652352375
aaa(lp1046
F1200.0
aF1300.0
aF0.258034
a(lp1047
F0.40788813333333335
aa(lp1048
F1.08698
aa(lp1049
F0.199501126
aa(lp1050
F0.006617691872884718
aaa(lp1051
F1200.0
aF2000.0
aF0.26266
a(lp1052
F0.41666432000000003
aa(lp1053
F1.08698
aa(lp1054
F0.199501126
aa(lp1055
F0.006674537123526495
aaa(lp1056
F1200.0
aF800.0
aF0.258249
a(lp1057
F0.40829324
aa(lp1058
F1.08698
aa(lp1059
F0.199501126
aa(lp1060
F0.006613824622880639
aaa(lp1061
F1200.0
aF1600.0
aF0.259916
a(lp1062
F0.41144976
aa(lp1063
F1.08698
aa(lp1064
F0.199501126
aa(lp1065
F0.006628528883880981
aaa(lp1066
F1200.0
aF1000.0
aF0.253836
a(lp1067
F0.3999776666666667
aa(lp1068
F1.08698
aa(lp1069
F0.199501126
aa(lp1070
F0.00653858857076799
aaa(lp1071
F1200.0
aF1500.0
aF0.267129
a(lp1072
F0.42520376000000004
aa(lp1073
F1.08698
aa(lp1074
F0.199501126
aa(lp1075
F0.006750966993121965
aaa(lp1076
F1200.0
aF300.0
aF0.084692
a(lp1077
F0.11868245333333334
aa(lp1078
F1.08698
aa(lp1079
F0.199501126
aa(lp1080
F0.003549487497278069
aaa(lp1081
F1200.0
aF600.0
aF0.252657
a(lp1082
F0.3977666
aa(lp1083
F1.08698
aa(lp1084
F0.199501126
aa(lp1085
F0.006526905619051037
aaa(lp1086
F1200.0
aF500.0
aF0.171713
a(lp1087
F0.25496288133333334
aa(lp1088
F1.08698
aa(lp1089
F0.199501126
aa(lp1090
F0.005224035837889663
aaa(lp1091
F1200.0
aF900.0
aF0.26007
a(lp1092
F0.41174293333333334
aa(lp1093
F1.08698
aa(lp1094
F0.199501126
aa(lp1095
F0.006629814885969458
aaa(lp1096
F1200.0
aF400.0
aF0.113569
a(lp1097
F0.162148436
aa(lp1098
F1.08698
aa(lp1099
F0.199501126
aa(lp1100
F0.004172768832961315
aaa(lp1101
F1300.0
aF1600.0
aF0.204042
a(lp1102
F0.30409591066666664
aa(lp1103
F1.04282
aa(lp1104
F0.189935978
aa(lp1105
F0.004630424982655479
aaa(lp1106
F1300.0
aF1700.0
aF0.20563
a(lp1107
F0.30681816000000006
aa(lp1108
F1.04282
aa(lp1109
F0.189935978
aa(lp1110
F0.004634418259549352
aaa(lp1111
F1300.0
aF900.0
aF0.202628
a(lp1112
F0.301677936
aa(lp1113
F1.04282
aa(lp1114
F0.189935978
aa(lp1115
F0.004594138932741732
aaa(lp1116
F1300.0
aF200.0
aF0.055903
a(lp1117
F0.03190103066666667
aa(lp1118
F0.16951
aa(lp1119
F0.074564344
aa(lp1120
F0.0014971898833036064
aaa(lp1121
F1300.0
aF1800.0
aF0.196553
a(lp1122
F0.291344036
aa(lp1123
F1.04282
aa(lp1124
F0.189935978
aa(lp1125
F0.004523081755715774
aaa(lp1126
F1300.0
aF1000.0
aF0.202802
a(lp1127
F0.3019746053333333
aa(lp1128
F1.04282
aa(lp1129
F0.189935978
aa(lp1130
F0.004609359145622451
aaa(lp1131
F1300.0
aF1400.0
aF0.199922
a(lp1132
F0.2970636146666667
aa(lp1133
F1.04282
aa(lp1134
F0.189935978
aa(lp1135
F0.00457291622393316
aaa(lp1136
F1300.0
aF1200.0
aF0.205589
a(lp1137
F0.30674793333333333
aa(lp1138
F1.04282
aa(lp1139
F0.189935978
aa(lp1140
F0.004628609918515253
aaa(lp1141
F1300.0
aF500.0
aF0.114196
a(lp1142
F0.15984260933333336
aa(lp1143
F1.04282
aa(lp1144
F0.189935978
aa(lp1145
F0.0033526858407352555
aaa(lp1146
F1300.0
aF100.0
aF0.055944
a(lp1147
F0.03192679066666667
aa(lp1148
F0.16951
aa(lp1149
F0.074564344
aa(lp1150
F0.0014983982505773735
aaa(lp1151
F1300.0
aF1100.0
aF0.207367
a(lp1152
F0.30980448
aa(lp1153
F1.04282
aa(lp1154
F0.189935978
aa(lp1155
F0.004668885942777641
aaa(lp1156
F1300.0
aF2000.0
aF0.20446
a(lp1157
F0.3048122226666667
aa(lp1158
F1.04282
aa(lp1159
F0.189935978
aa(lp1160
F0.004639180517672874
aaa(lp1161
F1300.0
aF1300.0
aF0.205538
a(lp1162
F0.306660656
aa(lp1163
F1.04282
aa(lp1164
F0.189935978
aa(lp1165
F0.004641049199384888
aaa(lp1166
F1300.0
aF1500.0
aF0.204742
a(lp1167
F0.305295192
aa(lp1168
F1.04282
aa(lp1169
F0.189935978
aa(lp1170
F0.004639552489913943
aaa(lp1171
F1300.0
aF600.0
aF0.169916
a(lp1172
F0.24711141733333336
aa(lp1173
F1.04282
aa(lp1174
F0.189935978
aa(lp1175
F0.004169209745529988
aaa(lp1176
F1300.0
aF300.0
aF0.068598
a(lp1177
F0.039913034666666666
aa(lp1178
F0.16951
aa(lp1179
F0.074564344
aa(lp1180
F0.001674714500378431
aaa(lp1181
F1300.0
aF1900.0
aF0.200355
a(lp1182
F0.2977997373333333
aa(lp1183
F1.04282
aa(lp1184
F0.189935978
aa(lp1185
F0.004572345494868519
aaa(lp1186
F1300.0
aF400.0
aF0.085083
a(lp1187
F0.11682748800000001
aa(lp1188
F1.04282
aa(lp1189
F0.189935978
aa(lp1190
F0.0028674182803816164
aaa(lp1191
F1300.0
aF700.0
aF0.201322
a(lp1192
F0.29944850000000006
aa(lp1193
F1.04282
aa(lp1194
F0.189935978
aa(lp1195
F0.004583098193240997
aaa(lp1196
F1300.0
aF800.0
aF0.201599
a(lp1197
F0.299921196
aa(lp1198
F1.04282
aa(lp1199
F0.189935978
aa(lp1200
F0.004581219216661774
aaa(lp1201
F1400.0
aF1100.0
aF0.193653
a(lp1202
F0.13692936533333333
aa(lp1203
F0.16951
aa(lp1204
F0.074564344
aa(lp1205
F0.002523641780179324
aaa(lp1206
F1400.0
aF400.0
aF0.076667
a(lp1207
F0.04516301466666667
aa(lp1208
F0.16951
aa(lp1209
F0.074564344
aa(lp1210
F0.001448604199911073
aaa(lp1211
F1400.0
aF1500.0
aF0.193925
a(lp1212
F0.13718150666666667
aa(lp1213
F0.16951
aa(lp1214
F0.074564344
aa(lp1215
F0.0025218725455502305
aaa(lp1216
F1400.0
aF1800.0
aF0.193145
a(lp1217
F0.13646105466666666
aa(lp1218
F0.16951
aa(lp1219
F0.074564344
aa(lp1220
F0.002517149254215967
aaa(lp1221
F1400.0
aF1600.0
aF0.183907
a(lp1222
F0.12804673466666666
aa(lp1223
F0.16951
aa(lp1224
F0.074564344
aa(lp1225
F0.002439095845959682
aaa(lp1226
F1400.0
aF1400.0
aF0.190841
a(lp1227
F0.13434128266666667
aa(lp1228
F0.16951
aa(lp1229
F0.074564344
aa(lp1230
F0.0024959462284094005
aaa(lp1231
F1400.0
aF600.0
aF0.138067
a(lp1232
F0.08944693866666666
aa(lp1233
F0.16951
aa(lp1234
F0.074564344
aa(lp1235
F0.0020344621220908053
aaa(lp1236
F1400.0
aF1700.0
aF0.1906
a(lp1237
F0.13412023733333334
aa(lp1238
F0.16951
aa(lp1239
F0.074564344
aa(lp1240
F0.0024991830057040643
aaa(lp1241
F1400.0
aF900.0
aF0.191784
a(lp1242
F0.13520672666666667
aa(lp1243
F0.16951
aa(lp1244
F0.074564344
aa(lp1245
F0.0025120257026285914
aaa(lp1246
F1400.0
aF100.0
aF0.054787
a(lp1247
F0.03121115333333333
aa(lp1248
F0.16951
aa(lp1249
F0.074564344
aa(lp1250
F0.001205792119175883
aaa(lp1251
F1400.0
aF700.0
aF0.195201
a(lp1252
F0.13836355333333333
aa(lp1253
F0.16951
aa(lp1254
F0.074564344
aa(lp1255
F0.00253122897019522
aaa(lp1256
F1400.0
aF2000.0
aF0.191875
a(lp1257
F0.13529081466666668
aa(lp1258
F0.16951
aa(lp1259
F0.074564344
aa(lp1260
F0.002503240561441198
aaa(lp1261
F1400.0
aF800.0
aF0.19354
a(lp1262
F0.136825068
aa(lp1263
F0.16951
aa(lp1264
F0.074564344
aa(lp1265
F0.0025204358536658786
aaa(lp1266
F1400.0
aF1300.0
aF0.188633
a(lp1267
F0.13232329333333334
aa(lp1268
F0.16951
aa(lp1269
F0.074564344
aa(lp1270
F0.0024708519851347724
aaa(lp1271
F1400.0
aF300.0
aF0.066337
a(lp1272
F0.038464003999999996
aa(lp1273
F0.16951
aa(lp1274
F0.074564344
aa(lp1275
F0.001331101848010804
aaa(lp1276
F1400.0
aF1200.0
aF0.188608
a(lp1277
F0.13230035466666668
aa(lp1278
F0.16951
aa(lp1279
F0.074564344
aa(lp1280
F0.0024851987395601
aaa(lp1281
F1400.0
aF500.0
aF0.101744
a(lp1282
F0.06229629733333333
aa(lp1283
F0.16951
aa(lp1284
F0.074564344
aa(lp1285
F0.0017037131558256316
aaa(lp1286
F1400.0
aF1000.0
aF0.188123
a(lp1287
F0.13185903066666665
aa(lp1288
F0.16951
aa(lp1289
F0.074564344
aa(lp1290
F0.0024699461446220507
aaa(lp1291
F1400.0
aF200.0
aF0.056865
a(lp1292
F0.03249786533333334
aa(lp1293
F0.16951
aa(lp1294
F0.074564344
aa(lp1295
F0.0012318288878285363
aaa(lp1296
F1400.0
aF1900.0
aF0.194246
a(lp1297
F0.13747878933333332
aa(lp1298
F0.16951
aa(lp1299
F0.074564344
aa(lp1300
F0.002528191693154088
aaa(lp1301
F1500.0
aF1500.0
aF0.141217
a(lp1302
F0.09194118133333333
aa(lp1303
F0.16951
aa(lp1304
F0.074564344
aa(lp1305
F0.0040792303871087145
aaa(lp1306
F1500.0
aF1100.0
aF0.155015
a(lp1307
F0.10313058933333333
aa(lp1308
F0.16951
aa(lp1309
F0.074564344
aa(lp1310
F0.004319664256500601
aaa(lp1311
F1500.0
aF1800.0
aF0.152029
a(lp1312
F0.10067081600000001
aa(lp1313
F0.16951
aa(lp1314
F0.074564344
aa(lp1315
F0.0042809579260306265
aaa(lp1316
F1500.0
aF400.0
aF0.050583
a(lp1317
F0.028632601866666666
aa(lp1318
F0.16951
aa(lp1319
F0.074564344
aa(lp1320
F0.002256565152615807
aaa(lp1321
F1500.0
aF200.0
aF0.042538
a(lp1322
F0.023785955999999997
aa(lp1323
F0.16951
aa(lp1324
F0.074564344
aa(lp1325
F0.0020781883871402143
aaa(lp1326
F1500.0
aF500.0
aF0.064826
a(lp1327
F0.03750162266666667
aa(lp1328
F0.16951
aa(lp1329
F0.074564344
aa(lp1330
F0.002606542553908018
aaa(lp1331
F1500.0
aF1300.0
aF0.141304
a(lp1332
F0.09766790533333332
aa(lp1333
F0.19789199999999998
aa(lp1334
F0.073314892
aa(lp1335
F0.0041951966374255524
aaa(lp1336
F1500.0
aF600.0
aF0.093223
a(lp1337
F0.056333593333333334
aa(lp1338
F0.16951
aa(lp1339
F0.074564344
aa(lp1340
F0.0031790877741194176
aaa(lp1341
F1500.0
aF1000.0
aF0.154569
a(lp1342
F0.10276203733333333
aa(lp1343
F0.16951
aa(lp1344
F0.074564344
aa(lp1345
F0.004334754757640724
aaa(lp1346
F1500.0
aF2000.0
aF0.155017
a(lp1347
F0.10313246
aa(lp1348
F0.16951
aa(lp1349
F0.074564344
aa(lp1350
F0.004331157244381178
aaa(lp1351
F1500.0
aF800.0
aF0.146744
a(lp1352
F0.09637003066666666
aa(lp1353
F0.16951
aa(lp1354
F0.074564344
aa(lp1355
F0.004186046055912694
aaa(lp1356
F1500.0
aF1700.0
aF0.149972
a(lp1357
F0.098989516
aa(lp1358
F0.16951
aa(lp1359
F0.074564344
aa(lp1360
F0.004205662489760416
aaa(lp1361
F1500.0
aF1200.0
aF0.145875
a(lp1362
F0.095669052
aa(lp1363
F0.16951
aa(lp1364
F0.074564344
aa(lp1365
F0.004147779752001196
aaa(lp1366
F1500.0
aF300.0
aF0.046616
a(lp1367
F0.02622801933333333
aa(lp1368
F0.16951
aa(lp1369
F0.074564344
aa(lp1370
F0.0021706463700934798
aaa(lp1371
F1500.0
aF1400.0
aF0.15461
a(lp1372
F0.10279561733333334
aa(lp1373
F0.16951
aa(lp1374
F0.074564344
aa(lp1375
F0.004317010615898203
aaa(lp1376
F1500.0
aF100.0
aF0.03578
a(lp1377
F0.019802576800000003
aa(lp1378
F0.16951
aa(lp1379
F0.074564344
aa(lp1380
F0.001905503630831259
aaa(lp1381
F1500.0
aF900.0
aF0.14424
a(lp1382
F0.09435513866666667
aa(lp1383
F0.16951
aa(lp1384
F0.074564344
aa(lp1385
F0.004149733742462682
aaa(lp1386
F1500.0
aF700.0
aF0.130122
a(lp1387
F0.083262668
aa(lp1388
F0.16951
aa(lp1389
F0.074564344
aa(lp1390
F0.0038653724546715207
aaa(lp1391
F1500.0
aF1900.0
aF0.141221
a(lp1392
F0.09194461599999999
aa(lp1393
F0.16951
aa(lp1394
F0.074564344
aa(lp1395
F0.004111887713555525
aaa(lp1396
F1500.0
aF1600.0
aF0.1522
a(lp1397
F0.10081114666666667
aa(lp1398
F0.16951
aa(lp1399
F0.074564344
aa(lp1400
F0.004306438664759238
aaa(lp1401
F1600.0
aF1500.0
aF0.114615
a(lp1402
F0.07620430533333333
aa(lp1403
F0.19789199999999998
aa(lp1404
F0.073314892
aa(lp1405
F0.0030336458077882314
aaa(lp1406
F1600.0
aF100.0
aF0.032388
a(lp1407
F0.019149094666666665
aa(lp1408
F0.19789199999999998
aa(lp1409
F0.073314892
aa(lp1410
F0.001523420181915241
aaa(lp1411
F1600.0
aF1300.0
aF0.125637
a(lp1412
F0.08487849466666667
aa(lp1413
F0.19789199999999998
aa(lp1414
F0.073314892
aa(lp1415
F0.0032150018351472212
aaa(lp1416
F1600.0
aF900.0
aF0.110671
a(lp1417
F0.073163092
aa(lp1418
F0.19789199999999998
aa(lp1419
F0.073314892
aa(lp1420
F0.0029720469908054207
aaa(lp1421
F1600.0
aF300.0
aF0.031812
a(lp1422
F0.01879320493333333
aa(lp1423
F0.19789199999999998
aa(lp1424
F0.073314892
aa(lp1425
F0.0014951070936000982
aaa(lp1426
F1600.0
aF500.0
aF0.051527
a(lp1427
F0.031299504
aa(lp1428
F0.19789199999999998
aa(lp1429
F0.073314892
aa(lp1430
F0.001952410378993105
aaa(lp1431
F1600.0
aF1000.0
aF0.117493
a(lp1432
F0.07844413733333333
aa(lp1433
F0.19789199999999998
aa(lp1434
F0.073314892
aa(lp1435
F0.0030911315468611167
aaa(lp1436
F1600.0
aF1200.0
aF0.12356
a(lp1437
F0.08322418133333333
aa(lp1438
F0.19789199999999998
aa(lp1439
F0.073314892
aa(lp1440
F0.0031546044428915508
aaa(lp1441
F1600.0
aF1800.0
aF0.121445
a(lp1442
F0.08154886133333333
aa(lp1443
F0.19789199999999998
aa(lp1444
F0.073314892
aa(lp1445
F0.0031364939576965017
aaa(lp1446
F1600.0
aF1100.0
aF0.124583
a(lp1447
F0.0840374
aa(lp1448
F0.19789199999999998
aa(lp1449
F0.073314892
aa(lp1450
F0.0031831438659148145
aaa(lp1451
F1600.0
aF1900.0
aF0.115792
a(lp1452
F0.07711774266666667
aa(lp1453
F0.19789199999999998
aa(lp1454
F0.073314892
aa(lp1455
F0.0030412264911819156
aaa(lp1456
F1600.0
aF1700.0
aF0.114085
a(lp1457
F0.07579380133333333
aa(lp1458
F0.19789199999999998
aa(lp1459
F0.073314892
aa(lp1460
F0.00302932979723972
aaa(lp1461
F1600.0
aF800.0
aF0.116854
a(lp1462
F0.07794494533333332
aa(lp1463
F0.19789199999999998
aa(lp1464
F0.073314892
aa(lp1465
F0.003052559445449015
aaa(lp1466
F1600.0
aF200.0
aF0.033416
a(lp1467
F0.019785694799999996
aa(lp1468
F0.19789199999999998
aa(lp1469
F0.073314892
aa(lp1470
F0.0015450032842827372
aaa(lp1471
F1600.0
aF1600.0
aF0.120205
a(lp1472
F0.08057071733333332
aa(lp1473
F0.19789199999999998
aa(lp1474
F0.073314892
aa(lp1475
F0.0031385891352644422
aaa(lp1476
F1600.0
aF2000.0
aF0.114027
a(lp1477
F0.07574850666666667
aa(lp1478
F0.19789199999999998
aa(lp1479
F0.073314892
aa(lp1480
F0.0030202911712467577
aaa(lp1481
F1600.0
aF1400.0
aF0.119653
a(lp1482
F0.08013635466666667
aa(lp1483
F0.19789199999999998
aa(lp1484
F0.073314892
aa(lp1485
F0.0031122376058963677
aaa(lp1486
F1600.0
aF700.0
aF0.092133
a(lp1487
F0.059302065333333334
aa(lp1488
F0.19789199999999998
aa(lp1489
F0.073314892
aa(lp1490
F0.00266274077045939
aaa(lp1491
F1600.0
aF400.0
aF0.036223
a(lp1492
F0.02153246813333333
aa(lp1493
F0.19789199999999998
aa(lp1494
F0.073314892
aa(lp1495
F0.001596092618866462
aaa(lp1496
F1600.0
aF600.0
aF0.070793
a(lp1497
F0.044195512
aa(lp1498
F0.19789199999999998
aa(lp1499
F0.073314892
aa(lp1500
F0.002297615759772629
aaa(lp1501
F1700.0
aF900.0
aF0.084847
a(lp1502
F0.054044204
aa(lp1503
F0.19789199999999998
aa(lp1504
F0.073314892
aa(lp1505
F0.002072500208604734
aaa(lp1506
F1700.0
aF1500.0
aF0.085761
a(lp1507
F0.05469801733333333
aa(lp1508
F0.19789199999999998
aa(lp1509
F0.073314892
aa(lp1510
F0.0020883797355845035
aaa(lp1511
F1700.0
aF1800.0
aF0.086989
a(lp1512
F0.05557882533333334
aa(lp1513
F0.19789199999999998
aa(lp1514
F0.073314892
aa(lp1515
F0.0021006825595505855
aaa(lp1516
F1700.0
aF700.0
aF0.053081
a(lp1517
F0.032314202666666667
aa(lp1518
F0.19789199999999998
aa(lp1519
F0.073314892
aa(lp1520
F0.001619763866466687
aaa(lp1521
F1700.0
aF500.0
aF0.031146
a(lp1522
F0.018382578266666665
aa(lp1523
F0.19789199999999998
aa(lp1524
F0.073314892
aa(lp1525
F0.0012282377106154075
aaa(lp1526
F1700.0
aF300.0
aF0.024685
a(lp1527
F0.0144373852
aa(lp1528
F0.19789199999999998
aa(lp1529
F0.073314892
aa(lp1530
F0.0010760989702521687
aaa(lp1531
F1700.0
aF800.0
aF0.076482
a(lp1532
F0.048136792
aa(lp1533
F0.19789199999999998
aa(lp1534
F0.073314892
aa(lp1535
F0.0019619091975816706
aaa(lp1536
F1700.0
aF1300.0
aF0.079723
a(lp1537
F0.050409284
aa(lp1538
F0.19789199999999998
aa(lp1539
F0.073314892
aa(lp1540
F0.0020196050161685906
aaa(lp1541
F1700.0
aF400.0
aF0.026947
a(lp1542
F0.01581076426666667
aa(lp1543
F0.19789199999999998
aa(lp1544
F0.073314892
aa(lp1545
F0.0011322322714198022
aaa(lp1546
F1700.0
aF1000.0
aF0.085083
a(lp1547
F0.0542133
aa(lp1548
F0.19789199999999998
aa(lp1549
F0.073314892
aa(lp1550
F0.002085126548570987
aaa(lp1551
F1700.0
aF2000.0
aF0.086343
a(lp1552
F0.055115114666666666
aa(lp1553
F0.19789199999999998
aa(lp1554
F0.073314892
aa(lp1555
F0.0021089208248138034
aaa(lp1556
F1700.0
aF1600.0
aF0.083477
a(lp1557
F0.053067286666666665
aa(lp1558
F0.19789199999999998
aa(lp1559
F0.073314892
aa(lp1560
F0.0020609629102274823
aaa(lp1561
F1700.0
aF1400.0
aF0.081373
a(lp1562
F0.05157461733333333
aa(lp1563
F0.19789199999999998
aa(lp1564
F0.073314892
aa(lp1565
F0.0020370752009246547
aaa(lp1566
F1700.0
aF1200.0
aF0.085717
a(lp1567
F0.054666676000000004
aa(lp1568
F0.19789199999999998
aa(lp1569
F0.073314892
aa(lp1570
F0.0020841475942616604
aaa(lp1571
F1700.0
aF100.0
aF0.021345
a(lp1572
F0.012425851199999999
aa(lp1573
F0.19789199999999998
aa(lp1574
F0.073314892
aa(lp1575
F0.0009948641957573908
aaa(lp1576
F1700.0
aF1700.0
aF0.083219
a(lp1577
F0.05288393066666667
aa(lp1578
F0.19789199999999998
aa(lp1579
F0.073314892
aa(lp1580
F0.0020742786890868836
aaa(lp1581
F1700.0
aF1900.0
aF0.079012
a(lp1582
F0.04990904933333334
aa(lp1583
F0.19789199999999998
aa(lp1584
F0.073314892
aa(lp1585
F0.002004395010082704
aaa(lp1586
F1700.0
aF1100.0
aF0.085313
a(lp1587
F0.05437718266666667
aa(lp1588
F0.19789199999999998
aa(lp1589
F0.073314892
aa(lp1590
F0.0020852692931343153
aaa(lp1591
F1700.0
aF600.0
aF0.038819
a(lp1592
F0.0231603284
aa(lp1593
F0.19789199999999998
aa(lp1594
F0.073314892
aa(lp1595
F0.0013647355787844034
aaa(lp1596
F1700.0
aF200.0
aF0.022151
a(lp1597
F0.012909403199999999
aa(lp1598
F0.19789199999999998
aa(lp1599
F0.073314892
aa(lp1600
F0.001017403352767339
aaa(lp1601
F1800.0
aF600.0
aF0.027259
a(lp1602
F0.010061825333333333
aa(lp1603
F0.075118
aa(lp1604
F0.0390613692
aa(lp1605
F0.0007417676509527764
aaa(lp1606
F1800.0
aF1800.0
aF0.060271
a(lp1607
F0.023985464133333332
aa(lp1608
F0.075118
aa(lp1609
F0.0390613692
aa(lp1610
F0.0011281811950608327
aaa(lp1611
F1800.0
aF400.0
aF0.022273
a(lp1612
F0.008128813333333334
aa(lp1613
F0.075118
aa(lp1614
F0.0390613692
aa(lp1615
F0.0006615135519229956
aaa(lp1616
F1800.0
aF1300.0
aF0.059729
a(lp1617
F0.02374034853333333
aa(lp1618
F0.075118
aa(lp1619
F0.0390613692
aa(lp1620
F0.001135655028998194
aaa(lp1621
F1800.0
aF1200.0
aF0.06191
a(lp1622
F0.024730084533333335
aa(lp1623
F0.075118
aa(lp1624
F0.0390613692
aa(lp1625
F0.0011505477806486595
aaa(lp1626
F1800.0
aF1700.0
aF0.062088
a(lp1627
F0.024811023066666667
aa(lp1628
F0.075118
aa(lp1629
F0.0390613692
aa(lp1630
F0.001158079476067549
aaa(lp1631
F1800.0
aF500.0
aF0.025443
a(lp1632
F0.009353042
aa(lp1633
F0.075118
aa(lp1634
F0.0390613692
aa(lp1635
F0.0007110986375711569
aaa(lp1636
F1800.0
aF1600.0
aF0.062624
a(lp1637
F0.0250558228
aa(lp1638
F0.075118
aa(lp1639
F0.0390613692
aa(lp1640
F0.0011557387478722575
aaa(lp1641
F1800.0
aF1000.0
aF0.062075
a(lp1642
F0.0248050952
aa(lp1643
F0.075118
aa(lp1644
F0.0390613692
aa(lp1645
F0.0011490739026615204
aaa(lp1646
F1800.0
aF700.0
aF0.034985
a(lp1647
F0.013143009599999998
aa(lp1648
F0.075118
aa(lp1649
F0.0390613692
aa(lp1650
F0.0008448647186910393
aaa(lp1651
F1800.0
aF200.0
aF0.015957
a(lp1652
F0.0057406252
aa(lp1653
F0.075118
aa(lp1654
F0.0390613692
aa(lp1655
F0.0005473470824095277
aaa(lp1656
F1800.0
aF800.0
aF0.049441
a(lp1657
F0.01919559146666667
aa(lp1658
F0.075118
aa(lp1659
F0.0390613692
aa(lp1660
F0.0010216783064046031
aaa(lp1661
F1800.0
aF2000.0
aF0.065804
a(lp1662
F0.02651968693333333
aa(lp1663
F0.075118
aa(lp1664
F0.0390613692
aa(lp1665
F0.0012029572176746584
aaa(lp1666
F1800.0
aF1100.0
aF0.061964
a(lp1667
F0.024754440000000003
aa(lp1668
F0.075118
aa(lp1669
F0.0390613692
aa(lp1670
F0.001157963749960344
aaa(lp1671
F1800.0
aF900.0
aF0.060181
a(lp1672
F0.023944625333333337
aa(lp1673
F0.075118
aa(lp1674
F0.0390613692
aa(lp1675
F0.0011415153312836213
aaa(lp1676
F1800.0
aF1500.0
aF0.06541
a(lp1677
F0.02633735826666667
aa(lp1678
F0.075118
aa(lp1679
F0.0390613692
aa(lp1680
F0.001188588333930447
aaa(lp1681
F1800.0
aF1400.0
aF0.063402
a(lp1682
F0.025412466933333332
aa(lp1683
F0.075118
aa(lp1684
F0.0390613692
aa(lp1685
F0.0011647783766307936
aaa(lp1686
F1800.0
aF1900.0
aF0.063623
a(lp1687
F0.025513624
aa(lp1688
F0.075118
aa(lp1689
F0.0390613692
aa(lp1690
F0.0011718796305271479
aaa(lp1691
F1800.0
aF100.0
aF0.017064
a(lp1692
F0.0061544964
aa(lp1693
F0.075118
aa(lp1694
F0.0390613692
aa(lp1695
F0.000578966443855869
aaa(lp1696
F1800.0
aF300.0
aF0.018266
a(lp1697
F0.0066059250666666664
aa(lp1698
F0.075118
aa(lp1699
F0.0390613692
aa(lp1700
F0.0005956362754418355
aaa(lp1701
F1900.0
aF300.0
aF0.014432
a(lp1702
F0.005173984933333334
aa(lp1703
F0.075118
aa(lp1704
F0.0390613692
aa(lp1705
F0.0004296760061048583
aaa(lp1706
F1900.0
aF1600.0
aF0.053239
a(lp1707
F0.020849772933333337
aa(lp1708
F0.075118
aa(lp1709
F0.0390613692
aa(lp1710
F0.0008679873744089446
aaa(lp1711
F1900.0
aF600.0
aF0.025054
a(lp1712
F0.009201723466666667
aa(lp1713
F0.075118
aa(lp1714
F0.0390613692
aa(lp1715
F0.0005796540292277799
aaa(lp1716
F1900.0
aF1500.0
aF0.053102
a(lp1717
F0.0207896356
aa(lp1718
F0.075118
aa(lp1719
F0.0390613692
aa(lp1720
F0.0008632426450180607
aaa(lp1721
F1900.0
aF500.0
aF0.018886
a(lp1722
F0.006839709333333333
aa(lp1723
F0.075118
aa(lp1724
F0.0390613692
aa(lp1725
F0.0004936136045306873
aaa(lp1726
F1900.0
aF1700.0
aF0.055655
a(lp1727
F0.021916384133333335
aa(lp1728
F0.075118
aa(lp1729
F0.0390613692
aa(lp1730
F0.0008773575764634268
aaa(lp1731
F1900.0
aF1800.0
aF0.051803
a(lp1732
F0.020221189066666666
aa(lp1733
F0.075118
aa(lp1734
F0.0390613692
aa(lp1735
F0.0008484622654085579
aaa(lp1736
F1900.0
aF800.0
aF0.039614
a(lp1737
F0.015039690799999998
aa(lp1738
F0.075118
aa(lp1739
F0.0390613692
aa(lp1740
F0.0007329897244694347
aaa(lp1741
F1900.0
aF1300.0
aF0.052324
a(lp1742
F0.020448790933333332
aa(lp1743
F0.075118
aa(lp1744
F0.0390613692
aa(lp1745
F0.0008625801248708563
aaa(lp1746
F1900.0
aF1000.0
aF0.05763
a(lp1747
F0.022796649333333332
aa(lp1748
F0.075118
aa(lp1749
F0.0390613692
aa(lp1750
F0.0009133284007652693
aaa(lp1751
F1900.0
aF1900.0
aF0.054581
a(lp1752
F0.021440725733333336
aa(lp1753
F0.075118
aa(lp1754
F0.0390613692
aa(lp1755
F0.0008731338023464674
aaa(lp1756
F1900.0
aF1200.0
aF0.052447
a(lp1757
F0.020502712133333333
aa(lp1758
F0.075118
aa(lp1759
F0.0390613692
aa(lp1760
F0.0008550221393884748
aaa(lp1761
F1900.0
aF100.0
aF0.013126
a(lp1762
F0.004691794533333333
aa(lp1763
F0.075118
aa(lp1764
F0.0390613692
aa(lp1765
F0.0004114974188119397
aaa(lp1766
F1900.0
aF2000.0
aF0.054537
a(lp1767
F0.021421513066666665
aa(lp1768
F0.075118
aa(lp1769
F0.0390613692
aa(lp1770
F0.0008774594015806214
aaa(lp1771
F1900.0
aF1100.0
aF0.055297
a(lp1772
F0.021757543066666666
aa(lp1773
F0.075118
aa(lp1774
F0.0390613692
aa(lp1775
F0.0008919723030079653
aaa(lp1776
F1900.0
aF900.0
aF0.04886
a(lp1777
F0.01894487613333333
aa(lp1778
F0.075118
aa(lp1779
F0.0390613692
aa(lp1780
F0.0008284016359230587
aaa(lp1781
F1900.0
aF200.0
aF0.014669
a(lp1782
F0.005261826533333333
aa(lp1783
F0.075118
aa(lp1784
F0.0390613692
aa(lp1785
F0.00043398805308697406
aaa(lp1786
F1900.0
aF400.0
aF0.017213
a(lp1787
F0.006210144133333333
aa(lp1788
F0.075118
aa(lp1789
F0.0390613692
aa(lp1790
F0.00047214856531957537
aaa(lp1791
F1900.0
aF700.0
aF0.02896
a(lp1792
F0.0107313216
aa(lp1793
F0.075118
aa(lp1794
F0.0390613692
aa(lp1795
F0.0006226945013050585
aaa(lp1796
F1900.0
aF1400.0
aF0.05573
a(lp1797
F0.021949801600000002
aa(lp1798
F0.075118
aa(lp1799
F0.0390613692
aa(lp1800
F0.0008931247457973357
aaa(lp1801
F2000.0
aF1500.0
aF0.038
a(lp1802
F0.014373745733333335
aa(lp1803
F0.075118
aa(lp1804
F0.0390613692
aa(lp1805
F0.000587786168828994
aaa(lp1806
F2000.0
aF1200.0
aF0.036013
a(lp1807
F0.0135607356
aa(lp1808
F0.075118
aa(lp1809
F0.0390613692
aa(lp1810
F0.0005684956525974691
aaa(lp1811
F2000.0
aF1300.0
aF0.041331
a(lp1812
F0.015752779733333333
aa(lp1813
F0.075118
aa(lp1814
F0.0390613692
aa(lp1815
F0.0006193056457391975
aaa(lp1816
F2000.0
aF300.0
aF0.008969
a(lp1817
F0.0031760546666666665
aa(lp1818
F0.075118
aa(lp1819
F0.0390613692
aa(lp1820
F0.00027749320962262603
aaa(lp1821
F2000.0
aF900.0
aF0.032738
a(lp1822
F0.012236033733333334
aa(lp1823
F0.075118
aa(lp1824
F0.0390613692
aa(lp1825
F0.0005407613429641994
aaa(lp1826
F2000.0
aF1900.0
aF0.039423
a(lp1827
F0.014960506399999999
aa(lp1828
F0.075118
aa(lp1829
F0.0390613692
aa(lp1830
F0.0005998616356016332
aaa(lp1831
F2000.0
aF1600.0
aF0.039958
a(lp1832
F0.015181824666666666
aa(lp1833
F0.075118
aa(lp1834
F0.0390613692
aa(lp1835
F0.0006005837073307193
aaa(lp1836
F2000.0
aF500.0
aF0.013158
a(lp1837
F0.004703880266666666
aa(lp1838
F0.075118
aa(lp1839
F0.0390613692
aa(lp1840
F0.00033685194136296733
aaa(lp1841
F2000.0
aF600.0
aF0.016083
a(lp1842
F0.0057875697333333335
aa(lp1843
F0.075118
aa(lp1844
F0.0390613692
aa(lp1845
F0.00037594319074384986
aaa(lp1846
F2000.0
aF200.0
aF0.009723
a(lp1847
F0.003448929733333333
aa(lp1848
F0.075118
aa(lp1849
F0.0390613692
aa(lp1850
F0.0002874108074980248
aaa(lp1851
F2000.0
aF1800.0
aF0.038234
a(lp1852
F0.014470115733333334
aa(lp1853
F0.075118
aa(lp1854
F0.0390613692
aa(lp1855
F0.0005902484164033537
aaa(lp1856
F2000.0
aF2000.0
aF0.038897
a(lp1857
F0.0147432392
aa(lp1858
F0.075118
aa(lp1859
F0.0390613692
aa(lp1860
F0.0005998940091568029
aaa(lp1861
F2000.0
aF400.0
aF0.01168
a(lp1862
F0.0041613348
aa(lp1863
F0.075118
aa(lp1864
F0.0390613692
aa(lp1865
F0.00031729879868106094
aaa(lp1866
F2000.0
aF1100.0
aF0.036404
a(lp1867
F0.013720104133333334
aa(lp1868
F0.075118
aa(lp1869
F0.0390613692
aa(lp1870
F0.0005818620795725087
aaa(lp1871
F2000.0
aF100.0
aF0.010056
a(lp1872
F0.0035695202666666667
aa(lp1873
F0.075118
aa(lp1874
F0.0390613692
aa(lp1875
F0.0002934127627611163
aaa(lp1876
F2000.0
aF1400.0
aF0.039046
a(lp1877
F0.014804477466666665
aa(lp1878
F0.075118
aa(lp1879
F0.0390613692
aa(lp1880
F0.0005955234530319617
aaa(lp1881
F2000.0
aF1700.0
aF0.037834
a(lp1882
F0.014305662666666667
aa(lp1883
F0.075118
aa(lp1884
F0.0390613692
aa(lp1885
F0.0005854918036052161
aaa(lp1886
F2000.0
aF700.0
aF0.018824
a(lp1887
F0.006816381200000001
aa(lp1888
F0.075118
aa(lp1889
F0.0390613692
aa(lp1890
F0.00040306104263360516
aaa(lp1891
F2000.0
aF1000.0
aF0.039746
a(lp1892
F0.015094222266666669
aa(lp1893
F0.075118
aa(lp1894
F0.0390613692
aa(lp1895
F0.0005975859352799766
aaa(lp1896
F2000.0
aF800.0
aF0.02331
a(lp1897
F0.0085272408
aa(lp1898
F0.075118
aa(lp1899
F0.0390613692
aa(lp1900
F0.00045515046811161493
aaa(lp1901
F2100.0
aF200.0
aF0.006913
a(lp1902
F0.0024363344933333335
aa(lp1903
F0.075118
aa(lp1904
F0.0390613692
aa(lp1905
F0.00019892587586558188
aaa(lp1906
F2100.0
aF100.0
aF0.006284
a(lp1907
F0.002211820146666667
aa(lp1908
F0.075118
aa(lp1909
F0.0390613692
aa(lp1910
F0.00018828261967348745
aaa(lp1911
F2100.0
aF400.0
aF0.006745
a(lp1912
F0.0023763146133333334
aa(lp1913
F0.075118
aa(lp1914
F0.0390613692
aa(lp1915
F0.00019402526387618242
aaa(lp1916
F2100.0
aF1400.0
aF0.023397
a(lp1917
F0.008560713466666666
aa(lp1918
F0.075118
aa(lp1919
F0.0390613692
aa(lp1920
F0.00036942210220830047
aaa(lp1921
F2100.0
aF500.0
aF0.008151
a(lp1922
F0.0028807782133333333
aa(lp1923
F0.075118
aa(lp1924
F0.0390613692
aa(lp1925
F0.00021531946551835743
aaa(lp1926
F2100.0
aF800.0
aF0.013773
a(lp1927
F0.004930301466666667
aa(lp1928
F0.075118
aa(lp1929
F0.0390613692
aa(lp1930
F0.00027867719782333585
aaa(lp1931
F2100.0
aF300.0
aF0.006562
a(lp1932
F0.00231080632
aa(lp1933
F0.075118
aa(lp1934
F0.0390613692
aa(lp1935
F0.00019190201763747385
aaa(lp1936
F2100.0
aF600.0
aF0.009725
a(lp1937
F0.0034496412
aa(lp1938
F0.075118
aa(lp1939
F0.0390613692
aa(lp1940
F0.00023636548934036696
aaa(lp1941
F2100.0
aF700.0
aF0.011121
a(lp1942
F0.003957054933333334
aa(lp1943
F0.075118
aa(lp1944
F0.0390613692
aa(lp1945
F0.0002528070237772501
aaa(lp1946
F2100.0
aF1000.0
aF0.022811
a(lp1947
F0.008335307333333333
aa(lp1948
F0.075118
aa(lp1949
F0.0390613692
aa(lp1950
F0.0003680129053292681
aaa(lp1951
F2100.0
aF1700.0
aF0.024652
a(lp1952
F0.009045694533333332
aa(lp1953
F0.075118
aa(lp1954
F0.0390613692
aa(lp1955
F0.00038293482752726126
aaa(lp1956
F2100.0
aF1800.0
aF0.024159
a(lp1957
F0.008854935599999999
aa(lp1958
F0.075118
aa(lp1959
F0.0390613692
aa(lp1960
F0.00037220074081961024
aaa(lp1961
F2100.0
aF1900.0
aF0.024692
a(lp1962
F0.009061294666666666
aa(lp1963
F0.075118
aa(lp1964
F0.0390613692
aa(lp1965
F0.0003812115840609021
aaa(lp1966
F2100.0
aF900.0
aF0.016306
a(lp1967
F0.005871059733333334
aa(lp1968
F0.075118
aa(lp1969
F0.0390613692
aa(lp1970
F0.0003098626528713076
aaa(lp1971
F2100.0
aF2000.0
aF0.024009
a(lp1972
F0.008796800799999999
aa(lp1973
F0.075118
aa(lp1974
F0.0390613692
aa(lp1975
F0.00037855400882833083
aaa(lp1976
F2100.0
aF1200.0
aF0.024712
a(lp1977
F0.009069099333333334
aa(lp1978
F0.075118
aa(lp1979
F0.0390613692
aa(lp1980
F0.0003818780750158063
aaa(lp1981
F2100.0
aF1500.0
aF0.024124
a(lp1982
F0.0088415404
aa(lp1983
F0.075118
aa(lp1984
F0.0390613692
aa(lp1985
F0.0003776919664370836
aaa(lp1986
F2100.0
aF1100.0
aF0.025041
a(lp1987
F0.0091966604
aa(lp1988
F0.075118
aa(lp1989
F0.0390613692
aa(lp1990
F0.0003872493363884996
aaa(lp1991
F2100.0
aF1300.0
aF0.023462
a(lp1992
F0.0085857068
aa(lp1993
F0.075118
aa(lp1994
F0.0390613692
aa(lp1995
F0.00037050054886748966
aaa(lp1996
F2100.0
aF1600.0
aF0.023414
a(lp1997
F0.008567352799999999
aa(lp1998
F0.075118
aa(lp1999
F0.0390613692
aa(lp2000
F0.0003707456683196417
aaa(lp2001
F2200.0
aF1700.0
aF0.016268
a(lp2002
F0.0058568304
aa(lp2003
F0.075118
aa(lp2004
F0.0390613692
aa(lp2005
F0.0002515724257279932
aaa(lp2006
F2200.0
aF1100.0
aF0.015174
a(lp2007
F0.005449442133333334
aa(lp2008
F0.075118
aa(lp2009
F0.0390613692
aa(lp2010
F0.0002427374665948561
aaa(lp2011
F2200.0
aF200.0
aF0.003313
a(lp2012
F0.0011580411066666669
aa(lp2013
F0.075118
aa(lp2014
F0.0390613692
aa(lp2015
F0.00011092019297174382
aaa(lp2016
F2200.0
aF1800.0
aF0.015509
a(lp2017
F0.005573942666666667
aa(lp2018
F0.075118
aa(lp2019
F0.0390613692
aa(lp2020
F0.0002451417835548327
aaa(lp2021
F2200.0
aF900.0
aF0.008922
a(lp2022
F0.0031588292
aa(lp2023
F0.075118
aa(lp2024
F0.0390613692
aa(lp2025
F0.00018422664041880586
aaa(lp2026
F2200.0
aF1000.0
aF0.011443
a(lp2027
F0.0040746891999999995
aa(lp2028
F0.075118
aa(lp2029
F0.0390613692
aa(lp2030
F0.00020766550993792343
aaa(lp2031
F2200.0
aF1300.0
aF0.014785
a(lp2032
F0.005305041999999999
aa(lp2033
F0.075118
aa(lp2034
F0.0390613692
aa(lp2035
F0.00023772462949107036
aaa(lp2036
F2200.0
aF1900.0
aF0.014619
a(lp2037
F0.005243306933333333
aa(lp2038
F0.075118
aa(lp2039
F0.0390613692
aa(lp2040
F0.0002368684678043914
aaa(lp2041
F2200.0
aF1400.0
aF0.014512
a(lp2042
F0.005203636533333334
aa(lp2043
F0.075118
aa(lp2044
F0.0390613692
aa(lp2045
F0.00023652896035040706
aaa(lp2046
F2200.0
aF1600.0
aF0.016116
a(lp2047
F0.005800146133333334
aa(lp2048
F0.075118
aa(lp2049
F0.0390613692
aa(lp2050
F0.00024776992847756524
aaa(lp2051
F2200.0
aF800.0
aF0.0067
a(lp2052
F0.0023601597199999994
aa(lp2053
F0.075118
aa(lp2054
F0.0390613692
aa(lp2055
F0.00015948480025103053
aaa(lp2056
F2200.0
aF400.0
aF0.003919
a(lp2057
F0.0013718227333333333
aa(lp2058
F0.075118
aa(lp2059
F0.0390613692
aa(lp2060
F0.00012078225410492496
aaa(lp2061
F2200.0
aF600.0
aF0.005331
a(lp2062
F0.0018723082533333333
aa(lp2063
F0.075118
aa(lp2064
F0.0390613692
aa(lp2065
F0.00014153319522681283
aaa(lp2066
F2200.0
aF2000.0
aF0.015474
a(lp2067
F0.005560759066666666
aa(lp2068
F0.075118
aa(lp2069
F0.0390613692
aa(lp2070
F0.00024385538658074473
aaa(lp2071
F2200.0
aF500.0
aF0.004718
a(lp2072
F0.0016545451733333335
aa(lp2073
F0.075118
aa(lp2074
F0.0390613692
aa(lp2075
F0.00013289625654789694
aaa(lp2076
F2200.0
aF700.0
aF0.006341
a(lp2077
F0.0022319742800000005
aa(lp2078
F0.075118
aa(lp2079
F0.0390613692
aa(lp2080
F0.0001558878398507508
aaa(lp2081
F2200.0
aF300.0
aF0.003336
a(lp2082
F0.0011663898
aa(lp2083
F0.075118
aa(lp2084
F0.0390613692
aa(lp2085
F0.00011223589427827643
aaa(lp2086
F2200.0
aF1200.0
aF0.014639
a(lp2087
F0.005250645466666666
aa(lp2088
F0.075118
aa(lp2089
F0.0390613692
aa(lp2090
F0.00023623765660876335
aaa(lp2091
F2200.0
aF1500.0
aF0.013662
a(lp2092
F0.0048896252
aa(lp2093
F0.075118
aa(lp2094
F0.0390613692
aa(lp2095
F0.0002277325332538639
aaa(lp2096
F2200.0
aF100.0
aF0.003628
a(lp2097
F0.0012693138800000002
aa(lp2098
F0.075118
aa(lp2099
F0.0390613692
aa(lp2100
F0.00011587196182760426
aaa(lp2101
F2300.0
aF700.0
aF0.00357
a(lp2102
F0.00124877948
aa(lp2103
F0.075118
aa(lp2104
F0.0390613692
aa(lp2105
F9.466972355627866e-05
aaa(lp2106
F2300.0
aF100.0
aF0.001841
a(lp2107
F0.00064156476
aa(lp2108
F0.075118
aa(lp2109
F0.0390613692
aa(lp2110
F6.762687009696006e-05
aaa(lp2111
F2300.0
aF1800.0
aF0.009105
a(lp2112
F0.0032251980000000003
aa(lp2113
F0.075118
aa(lp2114
F0.0390613692
aa(lp2115
F0.0001518685663328656
aaa(lp2116
F2300.0
aF1000.0
aF0.007166
a(lp2117
F0.002527153826666667
aa(lp2118
F0.075118
aa(lp2119
F0.0390613692
aa(lp2120
F0.0001341274251183884
aaa(lp2121
F2300.0
aF1500.0
aF0.010243
a(lp2122
F0.0036373488
aa(lp2123
F0.075118
aa(lp2124
F0.0390613692
aa(lp2125
F0.00016154025798887132
aaa(lp2126
F2300.0
aF1200.0
aF0.009858
a(lp2127
F0.0034977847999999997
aa(lp2128
F0.075118
aa(lp2129
F0.0390613692
aa(lp2130
F0.0001572137067815653
aaa(lp2131
F2300.0
aF500.0
aF0.002844
a(lp2132
F0.0009931994933333333
aa(lp2133
F0.075118
aa(lp2134
F0.0390613692
aa(lp2135
F8.454674306888205e-05
aaa(lp2136
F2300.0
aF1900.0
aF0.009143
a(lp2137
F0.0032388906666666667
aa(lp2138
F0.075118
aa(lp2139
F0.0390613692
aa(lp2140
F0.00015085020301978754
aaa(lp2141
F2300.0
aF1300.0
aF0.009599
a(lp2142
F0.003403911066666667
aa(lp2143
F0.075118
aa(lp2144
F0.0390613692
aa(lp2145
F0.0001545636507505349
aaa(lp2146
F2300.0
aF1600.0
aF0.008501
a(lp2147
F0.0030071310133333337
aa(lp2148
F0.075118
aa(lp2149
F0.0390613692
aa(lp2150
F0.00014569597459550257
aaa(lp2151
F2300.0
aF1700.0
aF0.008676
a(lp2152
F0.0030700952
aa(lp2153
F0.075118
aa(lp2154
F0.0390613692
aa(lp2155
F0.00014839872188727833
aaa(lp2156
F2300.0
aF1400.0
aF0.009405
a(lp2157
F0.0033335893333333332
aa(lp2158
F0.075118
aa(lp2159
F0.0390613692
aa(lp2160
F0.0001545914848883987
aaa(lp2161
F2300.0
aF1100.0
aF0.008711
a(lp2162
F0.003082604133333333
aa(lp2163
F0.075118
aa(lp2164
F0.0390613692
aa(lp2165
F0.0001484838388512366
aaa(lp2166
F2300.0
aF900.0
aF0.005534
a(lp2167
F0.0019443439466666666
aa(lp2168
F0.075118
aa(lp2169
F0.0390613692
aa(lp2170
F0.00011724837643983723
aaa(lp2171
F2300.0
aF2000.0
aF0.009301
a(lp2172
F0.0032959674666666666
aa(lp2173
F0.075118
aa(lp2174
F0.0390613692
aa(lp2175
F0.00015301139402744564
aaa(lp2176
F2300.0
aF300.0
aF0.001904
a(lp2177
F0.00066344512
aa(lp2178
F0.075118
aa(lp2179
F0.0390613692
aa(lp2180
F6.879605147584175e-05
aaa(lp2181
F2300.0
aF200.0
aF0.00205
a(lp2182
F0.0007146277866666667
aa(lp2183
F0.075118
aa(lp2184
F0.0390613692
aa(lp2185
F7.146276962011602e-05
aaa(lp2186
F2300.0
aF400.0
aF0.002347
a(lp2187
F0.0008187236400000001
aa(lp2188
F0.075118
aa(lp2189
F0.0390613692
aa(lp2190
F7.634638352491447e-05
aaa(lp2191
F2300.0
aF800.0
aF0.004258
a(lp2192
F0.0014916094933333335
aa(lp2193
F0.075118
aa(lp2194
F0.0390613692
aa(lp2195
F0.00010293082907143678
aaa(lp2196
F2300.0
aF600.0
aF0.003534
a(lp2197
F0.0012359476266666667
aa(lp2198
F0.075118
aa(lp2199
F0.0390613692
aa(lp2200
F9.396734561892587e-05
aaa(lp2201
F2400.0
aF1200.0
aF0.006277
a(lp2202
F0.002209196
aa(lp2203
F0.075118
aa(lp2204
F0.0390613692
aa(lp2205
F0.0001016864771955664
aaa(lp2206
F2400.0
aF1500.0
aF0.005391
a(lp2207
F0.0018935746666666668
aa(lp2208
F0.075118
aa(lp2209
F0.0390613692
aa(lp2210
F9.491633059349341e-05
aaa(lp2211
F2400.0
aF1100.0
aF0.004582
a(lp2212
F0.0016063196933333334
aa(lp2213
F0.075118
aa(lp2214
F0.0390613692
aa(lp2215
F8.66069451256653e-05
aaa(lp2216
F2400.0
aF1600.0
aF0.00537
a(lp2217
F0.001886084026666667
aa(lp2218
F0.075118
aa(lp2219
F0.0390613692
aa(lp2220
F9.454084214654415e-05
aaa(lp2221
F2400.0
aF400.0
aF0.00134
a(lp2222
F0.0004664320266666667
aa(lp2223
F0.075118
aa(lp2224
F0.0390613692
aa(lp2225
F4.64117077949567e-05
aaa(lp2226
F2400.0
aF1300.0
aF0.005731
a(lp2227
F0.002014335093333333
aa(lp2228
F0.075118
aa(lp2229
F0.0390613692
aa(lp2230
F9.759485387161672e-05
aaa(lp2231
F2400.0
aF200.0
aF0.001188
a(lp2232
F0.00041326522666666667
aa(lp2233
F0.075118
aa(lp2234
F0.0390613692
aa(lp2235
F4.4054211714406804e-05
aaa(lp2236
F2400.0
aF1700.0
aF0.005346
a(lp2237
F0.0018775439733333332
aa(lp2238
F0.075118
aa(lp2239
F0.0390613692
aa(lp2240
F9.470956521914775e-05
aaa(lp2241
F2400.0
aF2000.0
aF0.005533
a(lp2242
F0.001943879653333333
aa(lp2243
F0.075118
aa(lp2244
F0.0390613692
aa(lp2245
F9.542130326318355e-05
aaa(lp2246
F2400.0
aF600.0
aF0.001941
a(lp2247
F0.00067641988
aa(lp2248
F0.075118
aa(lp2249
F0.0390613692
aa(lp2250
F5.676389231036066e-05
aaa(lp2251
F2400.0
aF1900.0
aF0.005366
a(lp2252
F0.00188453536
aa(lp2253
F0.075118
aa(lp2254
F0.0390613692
aa(lp2255
F9.375913945376797e-05
aaa(lp2256
F2400.0
aF700.0
aF0.002162
a(lp2257
F0.00075391608
aa(lp2258
F0.075118
aa(lp2259
F0.0390613692
aa(lp2260
F5.9602305697384266e-05
aaa(lp2261
F2400.0
aF100.0
aF0.001301
a(lp2262
F0.00045267066666666666
aa(lp2263
F0.075118
aa(lp2264
F0.0390613692
aa(lp2265
F4.620050125750201e-05
aaa(lp2266
F2400.0
aF1800.0
aF0.005379
a(lp2267
F0.0018892442266666668
aa(lp2268
F0.075118
aa(lp2269
F0.0390613692
aa(lp2270
F9.399340837408641e-05
aaa(lp2271
F2400.0
aF500.0
aF0.001757
a(lp2272
F0.0006122320933333333
aa(lp2273
F0.075118
aa(lp2274
F0.0390613692
aa(lp2275
F5.3490983298330025e-05
aaa(lp2276
F2400.0
aF900.0
aF0.002594
a(lp2277
F0.0009054710533333333
aa(lp2278
F0.075118
aa(lp2279
F0.0390613692
aa(lp2280
F6.534673787658501e-05
aaa(lp2281
F2400.0
aF1400.0
aF0.005267
a(lp2282
F0.0018495054400000002
aa(lp2283
F0.075118
aa(lp2284
F0.0390613692
aa(lp2285
F9.305871626021927e-05
aaa(lp2286
F2400.0
aF800.0
aF0.002583
a(lp2287
F0.00090143072
aa(lp2288
F0.075118
aa(lp2289
F0.0390613692
aa(lp2290
F6.471895396764897e-05
aaa(lp2291
F2400.0
aF300.0
aF0.001343
a(lp2292
F0.0004675038266666666
aa(lp2293
F0.075118
aa(lp2294
F0.0390613692
aa(lp2295
F4.675038536264226e-05
aaa(lp2296
F2400.0
aF1000.0
aF0.003804
a(lp2297
F0.0013312148533333335
aa(lp2298
F0.075118
aa(lp2299
F0.0390613692
aa(lp2300
F7.87163753795161e-05
aaa(lp2301
F2500.0
aF400.0
aF0.000957
a(lp2302
F0.00033291365333333335
aa(lp2303
F0.075118
aa(lp2304
F0.0390613692
aa(lp2305
F3.248904302137021e-05
aaa(lp2306
F2500.0
aF1300.0
aF0.003507
a(lp2307
F0.0012263983333333332
aa(lp2308
F0.075118
aa(lp2309
F0.0390613692
aa(lp2310
F6.162883845877494e-05
aaa(lp2311
F2500.0
aF500.0
aF0.000952
a(lp2312
F0.00033086236
aa(lp2313
F0.075118
aa(lp2314
F0.0390613692
aa(lp2315
F3.213617929305778e-05
aaa(lp2316
F2500.0
aF900.0
aF0.001519
a(lp2317
F0.0005287194
aa(lp2318
F0.075118
aa(lp2319
F0.0390613692
aa(lp2320
F4.055092423114422e-05
aaa(lp2321
F2500.0
aF1400.0
aF0.003133
a(lp2322
F0.0010948110399999998
aa(lp2323
F0.075118
aa(lp2324
F0.0390613692
aa(lp2325
F5.885739496632706e-05
aaa(lp2326
F2500.0
aF200.0
aF0.000748
a(lp2327
F0.00025987466933333333
aa(lp2328
F0.075118
aa(lp2329
F0.0390613692
aa(lp2330
F2.852495075309801e-05
aaa(lp2331
F2500.0
aF1900.0
aF0.00336
a(lp2332
F0.0011749123733333334
aa(lp2333
F0.075118
aa(lp2334
F0.0390613692
aa(lp2335
F6.08346594193365e-05
aaa(lp2336
F2500.0
aF1000.0
aF0.002151
a(lp2337
F0.0007498309733333334
aa(lp2338
F0.075118
aa(lp2339
F0.0390613692
aa(lp2340
F4.800301244250777e-05
aaa(lp2341
F2500.0
aF1800.0
aF0.003345
a(lp2342
F0.0011695248533333334
aa(lp2343
F0.075118
aa(lp2344
F0.0390613692
aa(lp2345
F6.0555695546423306e-05
aaa(lp2346
F2500.0
aF1700.0
aF0.003242
a(lp2347
F0.00113312076
aa(lp2348
F0.075118
aa(lp2349
F0.0390613692
aa(lp2350
F5.914841631015999e-05
aaa(lp2351
F2500.0
aF800.0
aF0.001354
a(lp2352
F0.0004713432933333333
aa(lp2353
F0.075118
aa(lp2354
F0.0390613692
aa(lp2355
F3.848502944724813e-05
aaa(lp2356
F2500.0
aF700.0
aF0.000977
a(lp2357
F0.00033960052
aa(lp2358
F0.075118
aa(lp2359
F0.0390613692
aa(lp2360
F3.26780782516693e-05
aaa(lp2361
F2500.0
aF1600.0
aF0.003581
a(lp2362
F0.0012527876133333331
aa(lp2363
F0.075118
aa(lp2364
F0.0390613692
aa(lp2365
F6.232851191335578e-05
aaa(lp2366
F2500.0
aF1100.0
aF0.002588
a(lp2367
F0.0009030851866666667
aa(lp2368
F0.075118
aa(lp2369
F0.0390613692
aa(lp2370
F5.249077269175772e-05
aaa(lp2371
F2500.0
aF600.0
aF0.000995
a(lp2372
F0.00034592183999999996
aa(lp2373
F0.075118
aa(lp2374
F0.0390613692
aa(lp2375
F3.283346111650261e-05
aaa(lp2376
F2500.0
aF300.0
aF0.000845
a(lp2377
F0.0002935874253333333
aa(lp2378
F0.075118
aa(lp2379
F0.0390613692
aa(lp2380
F2.9964142481750858e-05
aaa(lp2381
F2500.0
aF2000.0
aF0.003608
a(lp2382
F0.001262102613333333
aa(lp2383
F0.075118
aa(lp2384
F0.0390613692
aa(lp2385
F6.310513762497207e-05
aaa(lp2386
F2500.0
aF1200.0
aF0.003219
a(lp2387
F0.00112493368
aa(lp2388
F0.075118
aa(lp2389
F0.0390613692
aa(lp2390
F5.928921582285339e-05
aaa(lp2391
F2500.0
aF100.0
aF0.000616
a(lp2392
F0.00021408240533333335
aa(lp2393
F0.075118
aa(lp2394
F0.0390613692
aa(lp2395
F2.55877436667549e-05
aaa(lp2396
F2500.0
aF1500.0
aF0.003521
a(lp2397
F0.0012313893333333334
aa(lp2398
F0.075118
aa(lp2399
F0.0390613692
aa(lp2400
F6.180166527781522e-05
aaa(lp2401
F2600.0
aF800.0
aF0.000798
a(lp2402
F0.00027734010266666667
aa(lp2403
F0.075118
aa(lp2404
F0.0390613692
aa(lp2405
F2.3781720221866018e-05
aaa(lp2406
F2600.0
aF2000.0
aF0.002221
a(lp2407
F0.0007745670133333333
aa(lp2408
F0.075118
aa(lp2409
F0.0390613692
aa(lp2410
F3.9682275629191316e-05
aaa(lp2411
F2600.0
aF900.0
aF0.000893
a(lp2412
F0.00031031262666666667
aa(lp2413
F0.075118
aa(lp2414
F0.0390613692
aa(lp2415
F2.5252868827125368e-05
aaa(lp2416
F2600.0
aF1000.0
aF0.000985
a(lp2417
F0.0003424519066666667
aa(lp2418
F0.075118
aa(lp2419
F0.0390613692
aa(lp2420
F2.6264865863819755e-05
aaa(lp2421
F2600.0
aF200.0
aF0.000469
a(lp2422
F0.0001628212013333333
aa(lp2423
F0.075118
aa(lp2424
F0.0390613692
aa(lp2425
F1.8091243721142497e-05
aaa(lp2426
F2600.0
aF1100.0
aF0.001248
a(lp2427
F0.00043413113333333334
aa(lp2428
F0.075118
aa(lp2429
F0.0390613692
aa(lp2430
F2.9470730489004773e-05
aaa(lp2431
F2600.0
aF1500.0
aF0.002104
a(lp2432
F0.0007334877866666666
aa(lp2433
F0.075118
aa(lp2434
F0.0390613692
aa(lp2435
F3.855126902076132e-05
aaa(lp2436
F2600.0
aF700.0
aF0.000726
a(lp2437
F0.000252377712
aa(lp2438
F0.075118
aa(lp2439
F0.0390613692
aa(lp2440
F2.2664187499714656e-05
aaa(lp2441
F2600.0
aF1800.0
aF0.002213
a(lp2442
F0.0007716546
aa(lp2443
F0.075118
aa(lp2444
F0.0390613692
aa(lp2445
F3.984806181261797e-05
aaa(lp2446
F2600.0
aF1600.0
aF0.002168
a(lp2447
F0.0007560857466666667
aa(lp2448
F0.075118
aa(lp2449
F0.0390613692
aa(lp2450
F3.914863955064935e-05
aaa(lp2451
F2600.0
aF1400.0
aF0.002048
a(lp2452
F0.0007139623199999999
aa(lp2453
F0.075118
aa(lp2454
F0.0390613692
aa(lp2455
F3.810848831661757e-05
aaa(lp2456
F2600.0
aF1300.0
aF0.001963
a(lp2457
F0.0006840859333333333
aa(lp2458
F0.075118
aa(lp2459
F0.0390613692
aa(lp2460
F3.748767641061081e-05
aaa(lp2461
F2600.0
aF600.0
aF0.000656
a(lp2462
F0.00022783039466666666
aa(lp2463
F0.075118
aa(lp2464
F0.0390613692
aa(lp2465
F2.1624703885448542e-05
aaa(lp2466
F2600.0
aF1700.0
aF0.0022
a(lp2467
F0.0007670493866666667
aa(lp2468
F0.075118
aa(lp2469
F0.0390613692
aa(lp2470
F3.940067606864972e-05
aaa(lp2471
F2600.0
aF400.0
aF0.000457
a(lp2472
F0.00015865541066666664
aa(lp2473
F0.075118
aa(lp2474
F0.0390613692
aa(lp2475
F1.796418677257615e-05
aaa(lp2476
F2600.0
aF300.0
aF0.000565
a(lp2477
F0.00019642272933333333
aa(lp2478
F0.075118
aa(lp2479
F0.0390613692
aa(lp2480
F2.0047313919270525e-05
aaa(lp2481
F2600.0
aF1900.0
aF0.002117
a(lp2482
F0.0007381291866666666
aa(lp2483
F0.075118
aa(lp2484
F0.0390613692
aa(lp2485
F3.868847646981664e-05
aaa(lp2486
F2600.0
aF1200.0
aF0.001819
a(lp2487
F0.00063373372
aa(lp2488
F0.075118
aa(lp2489
F0.0390613692
aa(lp2490
F3.611032229155536e-05
aaa(lp2491
F2600.0
aF100.0
aF0.0005
a(lp2492
F0.00017380793333333333
aa(lp2493
F0.075118
aa(lp2494
F0.0390613692
aa(lp2495
F1.8742191186968744e-05
aaa(lp2496
F2600.0
aF500.0
aF0.000558
a(lp2497
F0.00019401508933333334
aa(lp2498
F0.075118
aa(lp2499
F0.0390613692
aa(lp2500
F1.980158326329825e-05
aaa(lp2501
F2700.0
aF1400.0
aF0.001284
a(lp2502
F0.00044664497333333337
aa(lp2503
F0.075118
aa(lp2504
F0.0390613692
aa(lp2505
F2.443931894668462e-05
aaa(lp2506
F2700.0
aF1000.0
aF0.000594
a(lp2507
F0.0002064473253333333
aa(lp2508
F0.075118
aa(lp2509
F0.0390613692
aa(lp2510
F1.6636001031230766e-05
aaa(lp2511
F2700.0
aF800.0
aF0.000476
a(lp2512
F0.00016534282933333333
aa(lp2513
F0.075118
aa(lp2514
F0.0390613692
aa(lp2515
F1.4848222376208318e-05
aaa(lp2516
F2700.0
aF900.0
aF0.000517
a(lp2517
F0.00017971807466666666
aa(lp2518
F0.075118
aa(lp2519
F0.0390613692
aa(lp2520
F1.5410697231324596e-05
aaa(lp2521
F2700.0
aF600.0
aF0.000394
a(lp2522
F0.00013685095066666666
aa(lp2523
F0.075118
aa(lp2524
F0.0390613692
aa(lp2525
F1.3550263689111162e-05
aaa(lp2526
F2700.0
aF1100.0
aF0.00083
a(lp2527
F0.00028841122933333333
aa(lp2528
F0.075118
aa(lp2529
F0.0390613692
aa(lp2530
F1.9669483816307944e-05
aaa(lp2531
F2700.0
aF1300.0
aF0.001135
a(lp2532
F0.0003947661733333333
aa(lp2533
F0.075118
aa(lp2534
F0.0390613692
aa(lp2535
F2.2984166461090363e-05
aaa(lp2536
F2700.0
aF400.0
aF0.000319
a(lp2537
F0.000110914832
aa(lp2538
F0.075118
aa(lp2539
F0.0390613692
aa(lp2540
F1.21744851371857e-05
aaa(lp2541
F2700.0
aF1700.0
aF0.00145
a(lp2542
F0.0005046230666666667
aa(lp2543
F0.075118
aa(lp2544
F0.0390613692
aa(lp2545
F2.5989414703340707e-05
aaa(lp2546
F2700.0
aF100.0
aF0.000242
a(lp2547
F8.393012800000001e-05
aa(lp2548
F0.075118
aa(lp2549
F0.0390613692
aa(lp2550
F1.0491267911935143e-05
aaa(lp2551
F2700.0
aF2000.0
aF0.001256
a(lp2552
F0.00043707605333333336
aa(lp2553
F0.075118
aa(lp2554
F0.0390613692
aa(lp2555
F2.402386816110641e-05
aaa(lp2556
F2700.0
aF1200.0
aF0.001018
a(lp2557
F0.00035388597333333333
aa(lp2558
F0.075118
aa(lp2559
F0.0390613692
aa(lp2560
F2.1536813770327723e-05
aaa(lp2561
F2700.0
aF700.0
aF0.000411
a(lp2562
F0.00014279283200000002
aa(lp2563
F0.075118
aa(lp2564
F0.0390613692
aa(lp2565
F1.3740244403454644e-05
aaa(lp2566
F2700.0
aF300.0
aF0.000318
a(lp2567
F0.000110372216
aa(lp2568
F0.075118
aa(lp2569
F0.0390613692
aa(lp2570
F1.2042593445304416e-05
aaa(lp2571
F2700.0
aF1800.0
aF0.001216
a(lp2572
F0.00042321134666666667
aa(lp2573
F0.075118
aa(lp2574
F0.0390613692
aa(lp2575
F2.373250715041385e-05
aaa(lp2576
F2700.0
aF200.0
aF0.000326
a(lp2577
F0.000113290824
aa(lp2578
F0.075118
aa(lp2579
F0.0390613692
aa(lp2580
F1.2288114582799105e-05
aaa(lp2581
F2700.0
aF1500.0
aF0.001243
a(lp2582
F0.00043256345333333334
aa(lp2583
F0.075118
aa(lp2584
F0.0390613692
aa(lp2585
F2.384799992918111e-05
aaa(lp2586
F2700.0
aF500.0
aF0.000364
a(lp2587
F0.00012642707466666668
aa(lp2588
F0.075118
aa(lp2589
F0.0390613692
aa(lp2590
F1.2971144495036325e-05
aaa(lp2591
F2700.0
aF1900.0
aF0.001319
a(lp2592
F0.00045894782666666673
aa(lp2593
F0.075118
aa(lp2594
F0.0390613692
aa(lp2595
F2.488993647239784e-05
aaa(lp2596
F2700.0
aF1600.0
aF0.001188
a(lp2597
F0.00041343941333333336
aa(lp2598
F0.075118
aa(lp2599
F0.0390613692
aa(lp2600
F2.3406402390988856e-05
aaa(lp2601
F2800.0
aF1500.0
aF0.000786
a(lp2602
F0.00027330657733333334
aa(lp2603
F0.075118
aa(lp2604
F0.0390613692
aa(lp2605
F1.5374695944238303e-05
aaa(lp2606
F2800.0
aF200.0
aF0.000175
a(lp2607
F6.064771866666667e-05
aa(lp2608
F0.075118
aa(lp2609
F0.0390613692
aa(lp2610
F7.248789181956146e-06
aaa(lp2611
F2800.0
aF400.0
aF0.000184
a(lp2612
F6.402316799999999e-05
aa(lp2613
F0.075118
aa(lp2614
F0.0390613692
aa(lp2615
F7.442543492352299e-06
aaa(lp2616
F2800.0
aF900.0
aF0.000341
a(lp2617
F0.00011853074533333332
aa(lp2618
F0.075118
aa(lp2619
F0.0390613692
aa(lp2620
F1.0163929904870019e-05
aaa(lp2621
F2800.0
aF600.0
aF0.000245
a(lp2622
F8.489802933333333e-05
aa(lp2623
F0.075118
aa(lp2624
F0.0390613692
aa(lp2625
F8.532573328655832e-06
aaa(lp2626
F2800.0
aF1200.0
aF0.000514
a(lp2627
F0.00017843568666666668
aa(lp2628
F0.075118
aa(lp2629
F0.0390613692
aa(lp2630
F1.2342653314601543e-05
aaa(lp2631
F2800.0
aF1000.0
aF0.000347
a(lp2632
F0.00012041036666666667
aa(lp2633
F0.075118
aa(lp2634
F0.0390613692
aa(lp2635
F1.0250009344169183e-05
aaa(lp2636
F2800.0
aF1400.0
aF0.000783
a(lp2637
F0.000272119624
aa(lp2638
F0.075118
aa(lp2639
F0.0390613692
aa(lp2640
F1.5307926417382597e-05
aaa(lp2641
F2800.0
aF800.0
aF0.000308
a(lp2642
F0.00010690939733333334
aa(lp2643
F0.075118
aa(lp2644
F0.0390613692
aa(lp2645
F9.679121456000024e-06
aaa(lp2646
F2800.0
aF100.0
aF0.000171
a(lp2647
F5.9448866666666666e-05
aa(lp2648
F0.075118
aa(lp2649
F0.0390613692
aa(lp2650
F7.156805040115472e-06
aaa(lp2651
F2800.0
aF1100.0
aF0.00042
a(lp2652
F0.000145700032
aa(lp2653
F0.075118
aa(lp2654
F0.0390613692
aa(lp2655
F1.1141960098853544e-05
aaa(lp2656
F2800.0
aF1300.0
aF0.000629
a(lp2657
F0.00021854998666666667
aa(lp2658
F0.075118
aa(lp2659
F0.0390613692
aa(lp2660
F1.3659375355817377e-05
aaa(lp2661
F2800.0
aF2000.0
aF0.000779
a(lp2662
F0.0002706112533333333
aa(lp2663
F0.075118
aa(lp2664
F0.0390613692
aa(lp2665
F1.5271476563988318e-05
aaa(lp2666
F2800.0
aF500.0
aF0.000218
a(lp2667
F7.578478533333332e-05
aa(lp2668
F0.075118
aa(lp2669
F0.0390613692
aa(lp2670
F8.078686183615089e-06
aaa(lp2671
F2800.0
aF1900.0
aF0.000746
a(lp2672
F0.0002593160146666667
aa(lp2673
F0.075118
aa(lp2674
F0.0390613692
aa(lp2675
F1.4946726957951546e-05
aaa(lp2676
F2800.0
aF1800.0
aF0.000811
a(lp2677
F0.0002820619106666667
aa(lp2678
F0.075118
aa(lp2679
F0.0390613692
aa(lp2680
F1.5621962409092885e-05
aaa(lp2681
F2800.0
aF300.0
aF0.000194
a(lp2682
F6.733670133333333e-05
aa(lp2683
F0.075118
aa(lp2684
F0.0390613692
aa(lp2685
F7.673730239372938e-06
aaa(lp2686
F2800.0
aF700.0
aF0.000262
a(lp2687
F9.094292e-05
aa(lp2688
F0.075118
aa(lp2689
F0.0390613692
aa(lp2690
F8.875117712896983e-06
aaa(lp2691
F2800.0
aF1600.0
aF0.000747
a(lp2692
F0.0002597734693333333
aa(lp2693
F0.075118
aa(lp2694
F0.0390613692
aa(lp2695
F1.494828414084893e-05
aaa(lp2696
F2800.0
aF1700.0
aF0.000787
a(lp2697
F0.00027355319866666667
aa(lp2698
F0.075118
aa(lp2699
F0.0390613692
aa(lp2700
F1.534009997359861e-05
aaa(lp2701
F2900.0
aF1300.0
aF0.000364
a(lp2702
F0.00012644323600000001
aa(lp2703
F0.075118
aa(lp2704
F0.0390613692
aa(lp2705
F8.319355163045325e-06
aaa(lp2706
F2900.0
aF900.0
aF0.000201
a(lp2707
F6.983799733333334e-05
aa(lp2708
F0.075118
aa(lp2709
F0.0390613692
aa(lp2710
F6.246499649136839e-06
aaa(lp2711
F2900.0
aF1600.0
aF0.000467
a(lp2712
F0.00016203825066666666
aa(lp2713
F0.075118
aa(lp2714
F0.0390613692
aa(lp2715
F9.498850873190456e-06
aaa(lp2716
F2900.0
aF2000.0
aF0.000499
a(lp2717
F0.00017331183866666668
aa(lp2718
F0.075118
aa(lp2719
F0.0390613692
aa(lp2720
F9.875357118718403e-06
aaa(lp2721
F2900.0
aF1200.0
aF0.000296
a(lp2722
F0.00010294275599999999
aa(lp2723
F0.075118
aa(lp2724
F0.0390613692
aa(lp2725
F7.609748422765222e-06
aaa(lp2726
F2900.0
aF1700.0
aF0.000506
a(lp2727
F0.00017579869066666667
aa(lp2728
F0.075118
aa(lp2729
F0.0390613692
aa(lp2730
F9.889450837466492e-06
aaa(lp2731
F2900.0
aF1100.0
aF0.000244
a(lp2732
F8.455744533333334e-05
aa(lp2733
F0.075118
aa(lp2734
F0.0390613692
aa(lp2735
F6.950577505662549e-06
aaa(lp2736
F2900.0
aF800.0
aF0.00019
a(lp2737
F6.601653199999999e-05
aa(lp2738
F0.075118
aa(lp2739
F0.0390613692
aa(lp2740
F6.051726153751507e-06
aaa(lp2741
F2900.0
aF600.0
aF0.000149
a(lp2742
F5.182151466666667e-05
aa(lp2743
F0.075118
aa(lp2744
F0.0390613692
aa(lp2745
F5.402764350877346e-06
aaa(lp2746
F2900.0
aF100.0
aF0.000123
a(lp2747
F4.2637952e-05
aa(lp2748
F0.075118
aa(lp2749
F0.0390613692
aa(lp2750
F4.890909365115835e-06
aaa(lp2751
F2900.0
aF400.0
aF0.000119
a(lp2752
F4.1451704e-05
aa(lp2753
F0.075118
aa(lp2754
F0.0390613692
aa(lp2755
F4.851553897235171e-06
aaa(lp2756
F2900.0
aF1000.0
aF0.000224
a(lp2757
F7.773858933333333e-05
aa(lp2758
F0.075118
aa(lp2759
F0.0390613692
aa(lp2760
F6.641655944784319e-06
aaa(lp2761
F2900.0
aF1400.0
aF0.000457
a(lp2762
F0.00015883306266666666
aa(lp2763
F0.075118
aa(lp2764
F0.0390613692
aa(lp2765
F9.458370612789967e-06
aaa(lp2766
F2900.0
aF200.0
aF0.000133
a(lp2767
F4.6199364e-05
aa(lp2768
F0.075118
aa(lp2769
F0.0390613692
aa(lp2770
F5.101866154435823e-06
aaa(lp2771
F2900.0
aF500.0
aF0.000122
a(lp2772
F4.2204356e-05
aa(lp2773
F0.075118
aa(lp2774
F0.0390613692
aa(lp2775
F4.873337637936996e-06
aaa(lp2776
F2900.0
aF1500.0
aF0.000438
a(lp2777
F0.00015205063866666665
aa(lp2778
F0.075118
aa(lp2779
F0.0390613692
aa(lp2780
F9.202521987658238e-06
aaa(lp2781
F2900.0
aF1800.0
aF0.000494
a(lp2782
F0.000171746704
aa(lp2783
F0.075118
aa(lp2784
F0.0390613692
aa(lp2785
F9.77032973400136e-06
aaa(lp2786
F2900.0
aF300.0
aF0.000136
a(lp2787
F4.7108048e-05
aa(lp2788
F0.075118
aa(lp2789
F0.0390613692
aa(lp2790
F5.170779226899301e-06
aaa(lp2791
F2900.0
aF700.0
aF0.000132
a(lp2792
F4.592480533333333e-05
aa(lp2793
F0.075118
aa(lp2794
F0.0390613692
aa(lp2795
F5.071548155478101e-06
aaa(lp2796
F2900.0
aF1900.0
aF0.000465
a(lp2797
F0.00016165261733333333
aa(lp2798
F0.075118
aa(lp2799
F0.0390613692
aa(lp2800
F9.575475519842924e-06
aaa(lp2801
F3000.0
aF1900.0
aF0.000285
a(lp2802
F9.911616933333334e-05
aa(lp2803
F0.075118
aa(lp2804
F0.0390613692
aa(lp2805
F5.944592337765663e-06
aaa(lp2806
F3000.0
aF800.0
aF0.0001
a(lp2807
F3.4797589333333333e-05
aa(lp2808
F0.075118
aa(lp2809
F0.0390613692
aa(lp2810
F3.5150876581451623e-06
aaa(lp2811
F3000.0
aF900.0
aF0.000116
a(lp2812
F4.026634533333334e-05
aa(lp2813
F0.075118
aa(lp2814
F0.0390613692
aa(lp2815
F3.7879379274510584e-06
aaa(lp2816
F3000.0
aF1600.0
aF0.000308
a(lp2817
F0.00010679123866666667
aa(lp2818
F0.075118
aa(lp2819
F0.0390613692
aa(lp2820
F6.1862488680765e-06
aaa(lp2821
F3000.0
aF700.0
aF9.5e-05
a(lp2822
F3.300898666666667e-05
aa(lp2823
F0.075118
aa(lp2824
F0.0390613692
aa(lp2825
F3.441425849201978e-06
aaa(lp2826
F3000.0
aF600.0
aF8.5e-05
a(lp2827
F2.934640226666667e-05
aa(lp2828
F0.075118
aa(lp2829
F0.0390613692
aa(lp2830
F3.2607118377570395e-06
aaa(lp2831
F3000.0
aF1300.0
aF0.000215
a(lp2832
F7.452548933333334e-05
aa(lp2833
F0.075118
aa(lp2834
F0.0390613692
aa(lp2835
F5.130546164558571e-06
aaa(lp2836
F3000.0
aF500.0
aF7.5e-05
a(lp2837
F2.6043080933333333e-05
aa(lp2838
F0.075118
aa(lp2839
F0.0390613692
aa(lp2840
F3.0481120953432436e-06
aaa(lp2841
F3000.0
aF1500.0
aF0.00029
a(lp2842
F0.000100579276
aa(lp2843
F0.075118
aa(lp2844
F0.0390613692
aa(lp2845
F6.0000561789962535e-06
aaa(lp2846
F3000.0
aF1800.0
aF0.000274
a(lp2847
F9.506176000000002e-05
aa(lp2848
F0.075118
aa(lp2849
F0.0390613692
aa(lp2850
F5.828609640957839e-06
aaa(lp2851
F3000.0
aF2000.0
aF0.000303
a(lp2852
F0.00010515946533333334
aa(lp2853
F0.075118
aa(lp2854
F0.0390613692
aa(lp2855
F6.153991642647703e-06
aaa(lp2856
F3000.0
aF100.0
aF6.9e-05
a(lp2857
F2.3941598533333336e-05
aa(lp2858
F0.075118
aa(lp2859
F0.0390613692
aa(lp2860
F2.924932264818756e-06
aaa(lp2861
F3000.0
aF1400.0
aF0.000242
a(lp2862
F8.3991124e-05
aa(lp2863
F0.075118
aa(lp2864
F0.0390613692
aa(lp2865
F5.467355818349895e-06
aaa(lp2866
F3000.0
aF1100.0
aF0.000153
a(lp2867
F5.3032204e-05
aa(lp2868
F0.075118
aa(lp2869
F0.0390613692
aa(lp2870
F4.388975364098854e-06
aaa(lp2871
F3000.0
aF1200.0
aF0.000159
a(lp2872
F5.535038933333333e-05
aa(lp2873
F0.075118
aa(lp2874
F0.0390613692
aa(lp2875
F4.431578447661486e-06
aaa(lp2876
F3000.0
aF1000.0
aF0.000129
a(lp2877
F4.4817462666666665e-05
aa(lp2878
F0.075118
aa(lp2879
F0.0390613692
aa(lp2880
F4.041054546636174e-06
aaa(lp2881
F3000.0
aF400.0
aF7.6e-05
a(lp2882
F2.641584653333333e-05
aa(lp2883
F0.075118
aa(lp2884
F0.0390613692
aa(lp2885
F3.0917414869652706e-06
aaa(lp2886
F3000.0
aF300.0
aF7.8e-05
a(lp2887
F2.7124087066666668e-05
aa(lp2888
F0.075118
aa(lp2889
F0.0390613692
aa(lp2890
F3.1113460581126835e-06
aaa(lp2891
F3000.0
aF1700.0
aF0.000282
a(lp2892
F9.803802133333335e-05
aa(lp2893
F0.075118
aa(lp2894
F0.0390613692
aa(lp2895
F5.944428596780538e-06
aaa(lp2896
F3000.0
aF200.0
aF5.9e-05
a(lp2897
F2.0349955333333333e-05
aa(lp2898
F0.075118
aa(lp2899
F0.0390613692
aa(lp2900
F2.7193771064549163e-06
aaa.