(lp0
(lp1
F100.0
aF800.0
aF0.998532
a(lp2
F1019.170664
aa(lp3
F2932.04
aa(lp4
F313.353196
aa(lp5
F22.542726039234914
aaa(lp6
F100.0
aF500.0
aF0.998738
a(lp7
F1033.21336
aa(lp8
F2932.04
aa(lp9
F313.353196
aa(lp10
F22.70935722560196
aaa(lp11
F100.0
aF650.0
aF0.997896
a(lp12
F985.001128
aa(lp13
F2932.04
aa(lp14
F313.353196
aa(lp15
F22.153042185668316
aaa(lp16
F100.0
aF850.0
aF0.998247
a(lp17
F1002.450032
aa(lp18
F2932.04
aa(lp19
F313.353196
aa(lp20
F22.354076625081163
aaa(lp21
F100.0
aF600.0
aF0.998263
a(lp22
F1003.311704
aa(lp23
F2932.04
aa(lp24
F313.353196
aa(lp25
F22.328921213529327
aaa(lp26
F100.0
aF150.0
aF0.998362
a(lp27
F1008.8361199999999
aa(lp28
F2932.04
aa(lp29
F313.353196
aa(lp30
F22.418578424155267
aaa(lp31
F100.0
aF100.0
aF0.998026
a(lp32
F991.108272
aa(lp33
F2932.04
aa(lp34
F313.353196
aa(lp35
F22.195174942315727
aaa(lp36
F100.0
aF1000.0
aF0.997585
a(lp37
F971.6830239999999
aa(lp38
F2932.04
aa(lp39
F313.353196
aa(lp40
F22.04389114108487
aaa(lp41
F100.0
aF400.0
aF0.998468
a(lp42
F1015.112912
aa(lp43
F2932.04
aa(lp44
F313.353196
aa(lp45
F22.486004550386447
aaa(lp46
F100.0
aF350.0
aF0.998417
a(lp47
F1012.089608
aa(lp48
F2932.04
aa(lp49
F313.353196
aa(lp50
F22.490882319731256
aaa(lp51
F100.0
aF750.0
aF0.998325
a(lp52
F1006.7606
aa(lp53
F2932.04
aa(lp54
F313.353196
aa(lp55
F22.427901822506715
aaa(lp56
F100.0
aF550.0
aF0.997525
a(lp57
F969.2827439999999
aa(lp58
F2932.04
aa(lp59
F313.353196
aa(lp60
F21.98378068303994
aaa(lp61
F100.0
aF50.0
aF0.998933
a(lp62
F1048.6612639999998
aa(lp63
F2932.04
aa(lp64
F313.353196
aa(lp65
F22.88911189190179
aaa(lp66
F100.0
aF900.0
aF0.998217
a(lp67
F1000.847576
aa(lp68
F2932.04
aa(lp69
F313.353196
aa(lp70
F22.34613905980181
aaa(lp71
F100.0
aF450.0
aF0.99854
a(lp72
F1019.65624
aa(lp73
F2932.04
aa(lp74
F313.353196
aa(lp75
F22.53142922763667
aaa(lp76
F100.0
aF200.0
aF0.998414
a(lp77
F1011.921616
aa(lp78
F2932.04
aa(lp79
F313.353196
aa(lp80
F22.487148813489004
aaa(lp81
F100.0
aF950.0
aF0.998732
a(lp82
F1032.73956
aa(lp83
F2932.04
aa(lp84
F313.353196
aa(lp85
F22.698941325092676
aaa(lp86
F100.0
aF700.0
aF0.998643
a(lp87
F1026.4701280000002
aa(lp88
F2932.04
aa(lp89
F313.353196
aa(lp90
F22.621331469212855
aaa(lp91
F100.0
aF300.0
aF0.998601
a(lp92
F1023.6256720000001
aa(lp93
F2932.04
aa(lp94
F313.353196
aa(lp95
F22.602600742392454
aaa(lp96
F100.0
aF250.0
aF0.998647
a(lp97
F1026.733064
aa(lp98
F2932.04
aa(lp99
F313.353196
aa(lp100
F22.58875608438853
aaa(lp101
F200.0
aF750.0
aF0.999359
a(lp102
F458.35067
aa(lp103
F1319.28
aa(lp104
F127.221418
aa(lp105
F7.997057333794725
aaa(lp106
F200.0
aF550.0
aF0.999171
a(lp107
F448.69435
aa(lp108
F1319.28
aa(lp109
F127.221418
aa(lp110
F7.938076070434194
aaa(lp111
F200.0
aF700.0
aF0.999273
a(lp112
F453.62187
aa(lp113
F1319.28
aa(lp114
F127.221418
aa(lp115
F7.968091000986372
aaa(lp116
F200.0
aF250.0
aF0.99932
a(lp117
F456.11438
aa(lp118
F1319.28
aa(lp119
F127.221418
aa(lp120
F7.992174022129398
aaa(lp121
F200.0
aF50.0
aF0.938146
a(lp122
F249.05504
aa(lp123
F1319.28
aa(lp124
F127.221418
aa(lp125
F5.921494167015619
aaa(lp126
F200.0
aF400.0
aF0.999325
a(lp127
F456.40187999999995
aa(lp128
F1319.28
aa(lp129
F127.221418
aa(lp130
F7.999669805685732
aaa(lp131
F200.0
aF650.0
aF0.999277
a(lp132
F453.83669000000003
aa(lp133
F1319.28
aa(lp134
F127.221418
aa(lp135
F7.9718676858061315
aaa(lp136
F200.0
aF450.0
aF0.999448
a(lp137
F463.86929000000003
aa(lp138
F1319.28
aa(lp139
F127.221418
aa(lp140
F8.067598762952953
aaa(lp141
F200.0
aF500.0
aF0.999197
a(lp142
F449.90024
aa(lp143
F1319.28
aa(lp144
F127.221418
aa(lp145
F7.929681550982989
aaa(lp146
F200.0
aF350.0
aF0.999509
a(lp147
F468.11555
aa(lp148
F1319.28
aa(lp149
F127.221418
aa(lp150
F8.09142811251512
aaa(lp151
F200.0
aF100.0
aF0.999167
a(lp152
F448.51403000000005
aa(lp153
F1319.28
aa(lp154
F127.221418
aa(lp155
F7.927443068228242
aaa(lp156
F200.0
aF600.0
aF0.999548
a(lp157
F471.1584500000001
aa(lp158
F1319.28
aa(lp159
F127.221418
aa(lp160
F8.14159391642693
aaa(lp161
F200.0
aF1000.0
aF0.999379
a(lp162
F459.50964
aa(lp163
F1319.28
aa(lp164
F127.221418
aa(lp165
F8.011180974113618
aaa(lp166
F200.0
aF150.0
aF0.999466
a(lp167
F465.08967
aa(lp168
F1319.28
aa(lp169
F127.221418
aa(lp170
F8.069316538592348
aaa(lp171
F200.0
aF300.0
aF0.999418
a(lp172
F461.93223000000006
aa(lp173
F1319.28
aa(lp174
F127.221418
aa(lp175
F8.037557240853717
aaa(lp176
F200.0
aF850.0
aF0.999585
a(lp177
F474.20342
aa(lp178
F1319.28
aa(lp179
F127.221418
aa(lp180
F8.158962697549242
aaa(lp181
F200.0
aF900.0
aF0.99949
a(lp182
F466.7183
aa(lp183
F1319.28
aa(lp184
F127.221418
aa(lp185
F8.069690204710463
aaa(lp186
F200.0
aF800.0
aF0.999498
a(lp187
F467.36736
aa(lp188
F1319.28
aa(lp189
F127.221418
aa(lp190
F8.099090035306435
aaa(lp191
F200.0
aF200.0
aF0.999355
a(lp192
F458.12848999999994
aa(lp193
F1319.28
aa(lp194
F127.221418
aa(lp195
F8.001712891625143
aaa(lp196
F200.0
aF950.0
aF0.999316
a(lp197
F455.90024999999997
aa(lp198
F1319.28
aa(lp199
F127.221418
aa(lp200
F7.988420181738064
aaa(lp201
F300.0
aF650.0
aF0.997015
a(lp202
F180.704698
aa(lp203
F516.58
aa(lp204
F54.743863999999995
aa(lp205
F3.0872786139252155
aaa(lp206
F300.0
aF400.0
aF0.997463
a(lp207
F183.80599500000002
aa(lp208
F516.58
aa(lp209
F54.743863999999995
aa(lp210
F3.114461584287082
aaa(lp211
F300.0
aF1000.0
aF0.997785
a(lp212
F186.357753
aa(lp213
F516.58
aa(lp214
F54.743863999999995
aa(lp215
F3.13217357596925
aaa(lp216
F300.0
aF350.0
aF0.997529
a(lp217
F184.30316299999998
aa(lp218
F516.58
aa(lp219
F54.743863999999995
aa(lp220
F3.1104079571657475
aaa(lp221
F300.0
aF200.0
aF0.99792
a(lp222
F187.539838
aa(lp223
F516.58
aa(lp224
F54.743863999999995
aa(lp225
F3.1383304048490497
aaa(lp226
F300.0
aF250.0
aF0.997594
a(lp227
F184.80649499999998
aa(lp228
F516.58
aa(lp229
F54.743863999999995
aa(lp230
F3.121571150878993
aaa(lp231
F300.0
aF150.0
aF0.99774
a(lp232
F185.984923
aa(lp233
F516.58
aa(lp234
F54.743863999999995
aa(lp235
F3.130332108578896
aaa(lp236
F300.0
aF550.0
aF0.997465
a(lp237
F183.820393
aa(lp238
F516.58
aa(lp239
F54.743863999999995
aa(lp240
F3.1138118295748063
aaa(lp241
F300.0
aF800.0
aF0.998234
a(lp242
F190.56778799999998
aa(lp243
F516.58
aa(lp244
F54.743863999999995
aa(lp245
F3.167343854083418
aaa(lp246
F300.0
aF700.0
aF0.997532
a(lp247
F184.32986599999998
aa(lp248
F516.58
aa(lp249
F54.743863999999995
aa(lp250
F3.114408929476025
aaa(lp251
F300.0
aF300.0
aF0.997552
a(lp252
F184.479987
aa(lp253
F516.58
aa(lp254
F54.743863999999995
aa(lp255
F3.1165008487083714
aaa(lp256
F300.0
aF900.0
aF0.996491
a(lp257
F177.581827
aa(lp258
F516.58
aa(lp259
F54.743863999999995
aa(lp260
F3.0640333777555364
aaa(lp261
F300.0
aF600.0
aF0.996811
a(lp262
F179.43369499999997
aa(lp263
F516.58
aa(lp264
F54.743863999999995
aa(lp265
F3.073197653910337
aaa(lp266
F300.0
aF50.0
aF0.868611
a(lp267
F20.510434
aa(lp268
F112.60799999999999
aa(lp269
F7.11574
aa(lp270
F1.038586131719464
aaa(lp271
F300.0
aF850.0
aF0.998071
a(lp272
F188.934581
aa(lp273
F516.58
aa(lp274
F54.743863999999995
aa(lp275
F3.1603422820954066
aaa(lp276
F300.0
aF750.0
aF0.997584
a(lp277
F184.7245
aa(lp278
F516.58
aa(lp279
F54.743863999999995
aa(lp280
F3.1166306983664267
aaa(lp281
F300.0
aF500.0
aF0.997333
a(lp282
F182.854692
aa(lp283
F516.58
aa(lp284
F54.743863999999995
aa(lp285
F3.1068275362497997
aaa(lp286
F300.0
aF950.0
aF0.997829
a(lp287
F186.73610299999999
aa(lp288
F516.58
aa(lp289
F54.743863999999995
aa(lp290
F3.130143677213556
aaa(lp291
F300.0
aF100.0
aF0.97146
a(lp292
F30.615599
aa(lp293
F112.60799999999999
aa(lp294
F7.11574
aa(lp295
F1.2701488397034422
aaa(lp296
F300.0
aF450.0
aF0.998025
a(lp297
F188.504527
aa(lp298
F516.58
aa(lp299
F54.743863999999995
aa(lp300
F3.154473268233541
aaa(lp301
F400.0
aF900.0
aF0.99276
a(lp302
F38.367864
aa(lp303
F110.078
aa(lp304
F7.3977108
aa(lp305
F0.9661661880856731
aaa(lp306
F400.0
aF200.0
aF0.992091
a(lp307
F37.899676
aa(lp308
F110.078
aa(lp309
F7.3977108
aa(lp310
F0.9604864439439007
aaa(lp311
F400.0
aF500.0
aF0.99227
a(lp312
F89.033989
aa(lp313
F235.704
aa(lp314
F28.113567
aa(lp315
F1.4728942127661442
aaa(lp316
F400.0
aF150.0
aF0.9581
a(lp317
F28.324039999999997
aa(lp318
F110.078
aa(lp319
F7.3977108
aa(lp320
F0.829479941288516
aaa(lp321
F400.0
aF300.0
aF0.989958
a(lp322
F85.928437
aa(lp323
F235.704
aa(lp324
F28.113567
aa(lp325
F1.4466804370696384
aaa(lp326
F400.0
aF650.0
aF0.994425
a(lp327
F39.734984
aa(lp328
F110.078
aa(lp329
F7.3977108
aa(lp330
F0.9832861806208811
aaa(lp331
F400.0
aF550.0
aF0.994667
a(lp332
F39.963903
aa(lp333
F110.078
aa(lp334
F7.3977108
aa(lp335
F0.9859367910773996
aaa(lp336
F400.0
aF850.0
aF0.988852
a(lp337
F84.66484
aa(lp338
F235.704
aa(lp339
F28.113567
aa(lp340
F1.4329404247909263
aaa(lp341
F400.0
aF250.0
aF0.994459
a(lp342
F39.767413999999995
aa(lp343
F110.078
aa(lp344
F7.3977108
aa(lp345
F0.9859013784349832
aaa(lp346
F400.0
aF800.0
aF0.994725
a(lp347
F40.020828
aa(lp348
F110.078
aa(lp349
F7.3977108
aa(lp350
F0.9876420677553178
aaa(lp351
F400.0
aF750.0
aF0.992726
a(lp352
F38.343139
aa(lp353
F110.078
aa(lp354
F7.3977108
aa(lp355
F0.9652376873081573
aaa(lp356
F400.0
aF100.0
aF0.871356
a(lp357
F20.7247135
aa(lp358
F110.078
aa(lp359
F7.3977108
aa(lp360
F0.7108517540247051
aaa(lp361
F400.0
aF350.0
aF0.993882
a(lp362
F39.251707999999994
aa(lp363
F110.078
aa(lp364
F7.3977108
aa(lp365
F0.9752168158927532
aaa(lp366
F400.0
aF950.0
aF0.992288
a(lp367
F38.033835
aa(lp368
F110.078
aa(lp369
F7.3977108
aa(lp370
F0.9626504308418502
aaa(lp371
F400.0
aF1000.0
aF0.994672
a(lp372
F39.968917000000005
aa(lp373
F110.078
aa(lp374
F7.3977108
aa(lp375
F0.9860604570714718
aaa(lp376
F400.0
aF400.0
aF0.993297
a(lp377
F38.773906000000004
aa(lp378
F110.078
aa(lp379
F7.3977108
aa(lp380
F0.9705615750687846
aaa(lp381
F400.0
aF450.0
aF0.995775
a(lp382
F41.156798
aa(lp383
F110.078
aa(lp384
F7.3977108
aa(lp385
F1.0005560444073085
aaa(lp386
F400.0
aF50.0
aF0.785289
a(lp387
F16.735733800000002
aa(lp388
F110.078
aa(lp389
F7.3977108
aa(lp390
F0.6380438369736048
aaa(lp391
F400.0
aF600.0
aF0.992243
a(lp392
F38.002532
aa(lp393
F110.078
aa(lp394
F7.3977108
aa(lp395
F0.962784230759935
aaa(lp396
F400.0
aF700.0
aF0.993223
a(lp397
F38.716198999999996
aa(lp398
F110.078
aa(lp399
F7.3977108
aa(lp400
F0.9721675848329855
aaa(lp401
F500.0
aF550.0
aF0.970485
a(lp402
F18.6361042
aa(lp403
F40.6456
aa(lp404
F3.71427414
aa(lp405
F0.4844224815179412
aaa(lp406
F500.0
aF300.0
aF0.969293
a(lp407
F18.4821008
aa(lp408
F40.6456
aa(lp409
F3.71427414
aa(lp410
F0.4825432888353127
aaa(lp411
F500.0
aF850.0
aF0.967484
a(lp412
F18.2583131
aa(lp413
F40.6456
aa(lp414
F3.71427414
aa(lp415
F0.4793215451030759
aaa(lp416
F500.0
aF50.0
aF0.704046
a(lp417
F8.2844298
aa(lp418
F40.6456
aa(lp419
F3.71427414
aa(lp420
F0.32296070612382555
aaa(lp421
F500.0
aF650.0
aF0.972033
a(lp422
F18.845006299999998
aa(lp423
F40.6456
aa(lp424
F3.71427414
aa(lp425
F0.4883699463521481
aaa(lp426
F500.0
aF150.0
aF0.809582
a(lp427
F10.5677893
aa(lp428
F40.6456
aa(lp429
F3.71427414
aa(lp430
F0.36419009363243254
aaa(lp431
F500.0
aF600.0
aF0.974731
a(lp432
F19.235095500000003
aa(lp433
F40.6456
aa(lp434
F3.71427414
aa(lp435
F0.4920765476020982
aaa(lp436
F500.0
aF450.0
aF0.967338
a(lp437
F18.240644500000002
aa(lp438
F40.6456
aa(lp439
F3.71427414
aa(lp440
F0.47836345293092786
aaa(lp441
F500.0
aF800.0
aF0.965976
a(lp442
F18.0802931
aa(lp443
F40.6456
aa(lp444
F3.71427414
aa(lp445
F0.4769546773017327
aaa(lp446
F500.0
aF1000.0
aF0.965589
a(lp447
F18.0357536
aa(lp448
F40.6456
aa(lp449
F3.71427414
aa(lp450
F0.4762771337152352
aaa(lp451
F500.0
aF750.0
aF0.970046
a(lp452
F18.5786755
aa(lp453
F40.6456
aa(lp454
F3.71427414
aa(lp455
F0.4834198960531103
aaa(lp456
F500.0
aF700.0
aF0.97351
a(lp457
F19.0540073
aa(lp458
F40.6456
aa(lp459
F3.71427414
aa(lp460
F0.4896924701279365
aaa(lp461
F500.0
aF100.0
aF0.752331
a(lp462
F9.2331292
aa(lp463
F40.6456
aa(lp464
F3.71427414
aa(lp465
F0.3412662154389151
aaa(lp466
F500.0
aF200.0
aF0.927598
a(lp467
F14.990486899999999
aa(lp468
F40.6456
aa(lp469
F3.71427414
aa(lp470
F0.43418779612052666
aaa(lp471
F500.0
aF250.0
aF0.972244
a(lp472
F18.8740116
aa(lp473
F40.6456
aa(lp474
F3.71427414
aa(lp475
F0.4868382894760846
aaa(lp476
F500.0
aF950.0
aF0.963744
a(lp477
F17.8296368
aa(lp478
F40.6456
aa(lp479
F3.71427414
aa(lp480
F0.4739846339281475
aaa(lp481
F500.0
aF900.0
aF0.968718
a(lp482
F18.409637
aa(lp483
F40.6456
aa(lp484
F3.71427414
aa(lp485
F0.481308014996634
aaa(lp486
F500.0
aF350.0
aF0.968368
a(lp487
F18.366362499999997
aa(lp488
F40.6456
aa(lp489
F3.71427414
aa(lp490
F0.48166036363811376
aaa(lp491
F500.0
aF500.0
aF0.975448
a(lp492
F19.345231000000002
aa(lp493
F40.6456
aa(lp494
F3.71427414
aa(lp495
F0.49296211791576844
aaa(lp496
F500.0
aF400.0
aF0.971972
a(lp497
F18.8363767
aa(lp498
F40.6456
aa(lp499
F3.71427414
aa(lp500
F0.4873288066593232
aaa(lp501
F600.0
aF450.0
aF0.85851
a(lp502
F8.116149533333333
aa(lp503
F18.768
aa(lp504
F1.88428282
aa(lp505
F0.19479381213078728
aaa(lp506
F600.0
aF200.0
aF0.687286
a(lp507
F5.308689800000001
aa(lp508
F18.768
aa(lp509
F1.88428282
aa(lp510
F0.15716090721154405
aaa(lp511
F600.0
aF550.0
aF0.87392
a(lp512
F8.497377599999998
aa(lp513
F18.768
aa(lp514
F1.88428282
aa(lp515
F0.1990722598008628
aaa(lp516
F600.0
aF100.0
aF0.565044
a(lp517
F4.0072992
aa(lp518
F18.768
aa(lp519
F1.88428282
aa(lp520
F0.1370467480176827
aaa(lp521
F600.0
aF800.0
aF0.859305
a(lp522
F8.134866933333333
aa(lp523
F18.768
aa(lp524
F1.88428282
aa(lp525
F0.19434950098555265
aaa(lp526
F600.0
aF600.0
aF0.8671
a(lp527
F8.323914666666665
aa(lp528
F18.768
aa(lp529
F1.88428282
aa(lp530
F0.19696405267064454
aaa(lp531
F600.0
aF350.0
aF0.872817
a(lp532
F8.4687794
aa(lp533
F18.768
aa(lp534
F1.88428282
aa(lp535
F0.19856583783610807
aaa(lp536
F600.0
aF250.0
aF0.805065
a(lp537
F7.024936
aa(lp538
F18.768
aa(lp539
F1.88428282
aa(lp540
F0.18102134864890015
aaa(lp541
F600.0
aF400.0
aF0.874257
a(lp542
F8.506163599999999
aa(lp543
F18.768
aa(lp544
F1.88428282
aa(lp545
F0.19889638519702774
aaa(lp546
F600.0
aF500.0
aF0.870089
a(lp547
F8.398959066666668
aa(lp548
F18.768
aa(lp549
F1.88428282
aa(lp550
F0.19813051971981613
aaa(lp551
F600.0
aF650.0
aF0.866842
a(lp552
F10.575082599999998
aa(lp553
F30.3278
aa(lp554
F2.9384317
aa(lp555
F0.2221538608962516
aaa(lp556
F600.0
aF950.0
aF0.867031
a(lp557
F10.580866333333335
aa(lp558
F30.3278
aa(lp559
F2.9384317
aa(lp560
F0.22227532346669127
aaa(lp561
F600.0
aF300.0
aF0.868776
a(lp562
F8.365805333333332
aa(lp563
F18.768
aa(lp564
F1.88428282
aa(lp565
F0.19773396055193843
aaa(lp566
F600.0
aF150.0
aF0.628168
a(lp567
F4.638577133333333
aa(lp568
F18.768
aa(lp569
F1.88428282
aa(lp570
F0.14712675712535167
aaa(lp571
F600.0
aF50.0
aF0.531235
a(lp572
F3.6964772000000004
aa(lp573
F18.768
aa(lp574
F1.88428282
aa(lp575
F0.1312657552533113
aaa(lp576
F600.0
aF850.0
aF0.874075
a(lp577
F8.501436333333332
aa(lp578
F18.768
aa(lp579
F1.88428282
aa(lp580
F0.19933150511982126
aaa(lp581
F600.0
aF1000.0
aF0.8692
a(lp582
F8.376458933333332
aa(lp583
F18.768
aa(lp584
F1.88428282
aa(lp585
F0.1971613877005333
aaa(lp586
F600.0
aF700.0
aF0.873795
a(lp587
F8.494142266666667
aa(lp588
F18.768
aa(lp589
F1.88428282
aa(lp590
F0.19916052252726524
aaa(lp591
F600.0
aF900.0
aF0.862726
a(lp592
F10.451088066666667
aa(lp593
F30.3278
aa(lp594
F2.9384317
aa(lp595
F0.22126451600842925
aaa(lp596
F600.0
aF750.0
aF0.866888
a(lp597
F8.318620066666666
aa(lp598
F18.768
aa(lp599
F1.88428282
aa(lp600
F0.196838736589682
aaa(lp601
F700.0
aF450.0
aF0.757555
a(lp602
F5.038984133333334
aa(lp603
F11.7484
aa(lp604
F1.33514954
aa(lp605
F0.1173126267713753
aaa(lp606
F700.0
aF100.0
aF0.441532
a(lp607
F2.3308184666666665
aa(lp608
F11.7484
aa(lp609
F1.33514954
aa(lp610
F0.07985253461502925
aaa(lp611
F700.0
aF1000.0
aF0.766838
a(lp612
F5.1558502
aa(lp613
F11.7484
aa(lp614
F1.33514954
aa(lp615
F0.11856447822926468
aaa(lp616
F700.0
aF850.0
aF0.769205
a(lp617
F5.1862792
aa(lp618
F11.7484
aa(lp619
F1.33514954
aa(lp620
F0.11888759105418305
aaa(lp621
F700.0
aF600.0
aF0.749051
a(lp622
F4.935232666666667
aa(lp623
F11.7484
aa(lp624
F1.33514954
aa(lp625
F0.1160669223240531
aaa(lp626
F700.0
aF250.0
aF0.588737
a(lp627
F3.379873
aa(lp628
F11.7484
aa(lp629
F1.33514954
aa(lp630
F0.09582750648952523
aaa(lp631
F700.0
aF750.0
aF0.79369
a(lp632
F5.517943799999999
aa(lp633
F11.7484
aa(lp634
F1.33514954
aa(lp635
F0.12253024872795018
aaa(lp636
F700.0
aF200.0
aF0.524464
a(lp637
F2.8921963333333336
aa(lp638
F11.7484
aa(lp639
F1.33514954
aa(lp640
F0.08866595957111538
aaa(lp641
F700.0
aF50.0
aF0.421519
a(lp642
F2.204389
aa(lp643
F11.7484
aa(lp644
F1.33514954
aa(lp645
F0.07745435688197276
aaa(lp646
F700.0
aF950.0
aF0.776236
a(lp647
F5.278293
aa(lp648
F11.7484
aa(lp649
F1.33514954
aa(lp650
F0.12002321786498922
aaa(lp651
F700.0
aF550.0
aF0.75973
a(lp652
F5.066015266666667
aa(lp653
F11.7484
aa(lp654
F1.33514954
aa(lp655
F0.11756024768413664
aaa(lp656
F700.0
aF400.0
aF0.75879
a(lp657
F5.054320533333334
aa(lp658
F11.7484
aa(lp659
F1.33514954
aa(lp660
F0.11757412631092683
aaa(lp661
F700.0
aF650.0
aF0.756012
a(lp662
F5.019914066666667
aa(lp663
F11.7484
aa(lp664
F1.33514954
aa(lp665
F0.11661612409954294
aaa(lp666
F700.0
aF800.0
aF0.779161
a(lp667
F5.317307133333333
aa(lp668
F11.7484
aa(lp669
F1.33514954
aa(lp670
F0.12044418735109912
aaa(lp671
F700.0
aF150.0
aF0.502201
a(lp672
F2.734899333333333
aa(lp673
F11.7484
aa(lp674
F1.33514954
aa(lp675
F0.0863556943499771
aaa(lp676
F700.0
aF350.0
aF0.748123
a(lp677
F4.924089933333333
aa(lp678
F11.7484
aa(lp679
F1.33514954
aa(lp680
F0.1159010548892651
aaa(lp681
F700.0
aF700.0
aF0.766318
a(lp682
F5.149195533333334
aa(lp683
F11.7484
aa(lp684
F1.33514954
aa(lp685
F0.11847410908905137
aaa(lp686
F700.0
aF900.0
aF0.761188
a(lp687
F5.084265
aa(lp688
F11.7484
aa(lp689
F1.33514954
aa(lp690
F0.11788856610281498
aaa(lp691
F700.0
aF300.0
aF0.691414
a(lp692
F4.301039866666667
aa(lp693
F11.7484
aa(lp694
F1.33514954
aa(lp695
F0.10827295431249466
aaa(lp696
F700.0
aF500.0
aF0.737328
a(lp697
F4.796987333333334
aa(lp698
F11.7484
aa(lp699
F1.33514954
aa(lp700
F0.1143762041685245
aaa(lp701
F800.0
aF300.0
aF0.505982
a(lp702
F2.044660133333333
aa(lp703
F6.2008
aa(lp704
F0.82986346
aa(lp705
F0.058181868118665436
aaa(lp706
F800.0
aF100.0
aF0.367359
a(lp707
F1.3743228333333333
aa(lp708
F6.2008
aa(lp709
F0.82986346
aa(lp710
F0.047531948366920075
aaa(lp711
F800.0
aF350.0
aF0.595513
a(lp712
F2.5636628
aa(lp713
F6.2008
aa(lp714
F0.82986346
aa(lp715
F0.06520127473191507
aaa(lp716
F800.0
aF800.0
aF0.669046
a(lp717
F3.0686906666666665
aa(lp718
F6.2008
aa(lp719
F0.82986346
aa(lp720
F0.0710962536909568
aaa(lp721
F800.0
aF400.0
aF0.644273
a(lp722
F2.8885976
aa(lp723
F6.2008
aa(lp724
F0.82986346
aa(lp725
F0.0690507006320557
aaa(lp726
F800.0
aF200.0
aF0.406844
a(lp727
F1.5525582666666669
aa(lp728
F6.2008
aa(lp729
F0.82986346
aa(lp730
F0.05053146469720073
aaa(lp731
F800.0
aF600.0
aF0.631685
a(lp732
F2.8014153333333334
aa(lp733
F6.2008
aa(lp734
F0.82986346
aa(lp735
F0.07601993890494198
aaa(lp736
F800.0
aF550.0
aF0.648633
a(lp737
F2.9194804666666667
aa(lp738
F6.2008
aa(lp739
F0.82986346
aa(lp740
F0.06927617987286668
aaa(lp741
F800.0
aF1000.0
aF0.651594
a(lp742
F2.940649666666667
aa(lp743
F6.2008
aa(lp744
F0.82986346
aa(lp745
F0.06956343145328267
aaa(lp746
F800.0
aF950.0
aF0.65734
a(lp747
F2.9821754
aa(lp748
F6.2008
aa(lp749
F0.82986346
aa(lp750
F0.07003809471359933
aaa(lp751
F800.0
aF850.0
aF0.6574
a(lp752
F2.9826108666666666
aa(lp753
F6.2008
aa(lp754
F0.82986346
aa(lp755
F0.07002901370146519
aaa(lp756
F800.0
aF650.0
aF0.647177
a(lp757
F2.9091350666666664
aa(lp758
F6.2008
aa(lp759
F0.82986346
aa(lp760
F0.06918671182628448
aaa(lp761
F800.0
aF150.0
aF0.398596
a(lp762
F1.5145999866666666
aa(lp763
F6.2008
aa(lp764
F0.82986346
aa(lp765
F0.04993487808024456
aaa(lp766
F800.0
aF50.0
aF0.326035
a(lp767
F1.1964753333333333
aa(lp768
F6.2008
aa(lp769
F0.82986346
aa(lp770
F0.04446665609195276
aaa(lp771
F800.0
aF250.0
aF0.471592
a(lp772
F1.8657477333333334
aa(lp773
F6.2008
aa(lp774
F0.82986346
aa(lp775
F0.05552722731537505
aaa(lp776
F800.0
aF750.0
aF0.653245
a(lp777
F2.952531466666667
aa(lp778
F6.2008
aa(lp779
F0.82986346
aa(lp780
F0.06996205314311466
aaa(lp781
F800.0
aF900.0
aF0.666371
a(lp782
F3.0486867999999996
aa(lp783
F6.2008
aa(lp784
F0.82986346
aa(lp785
F0.07088056198046588
aaa(lp786
F800.0
aF450.0
aF0.664439
a(lp787
F3.0343301999999994
aa(lp788
F6.2008
aa(lp789
F0.82986346
aa(lp790
F0.07085378870133434
aaa(lp791
F800.0
aF500.0
aF0.658087
a(lp792
F2.9876218
aa(lp793
F6.2008
aa(lp794
F0.82986346
aa(lp795
F0.07006947472964878
aaa(lp796
F800.0
aF700.0
aF0.665801
a(lp797
F3.044447133333333
aa(lp798
F6.2008
aa(lp799
F0.82986346
aa(lp800
F0.07101263812402221
aaa(lp801
F900.0
aF200.0
aF0.329639
a(lp802
F0.8589878999999999
aa(lp803
F3.01392
aa(lp804
F0.44629673799999997
aa(lp805
F0.02100724305778578
aaa(lp806
F900.0
aF550.0
aF0.551962
a(lp807
F1.6780669666666668
aa(lp808
F3.01392
aa(lp809
F0.44629673799999997
aa(lp810
F0.02937654185078821
aaa(lp811
F900.0
aF850.0
aF0.536002
a(lp812
F1.6080059
aa(lp813
F3.01392
aa(lp814
F0.44629673799999997
aa(lp815
F0.028751093756972487
aaa(lp816
F900.0
aF300.0
aF0.387399
a(lp817
F1.0449490333333333
aa(lp818
F3.01392
aa(lp819
F0.44629673799999997
aa(lp820
F0.023124231213647345
aaa(lp821
F900.0
aF1000.0
aF0.547877
a(lp822
F1.6599145999999998
aa(lp823
F3.01392
aa(lp824
F0.44629673799999997
aa(lp825
F0.029233996267663747
aaa(lp826
F900.0
aF900.0
aF0.552931
a(lp827
F1.6823925
aa(lp828
F3.01392
aa(lp829
F0.44629673799999997
aa(lp830
F0.02938480416057857
aaa(lp831
F900.0
aF650.0
aF0.548977
a(lp832
F1.664786
aa(lp833
F3.01392
aa(lp834
F0.44629673799999997
aa(lp835
F0.02917984094846608
aaa(lp836
F900.0
aF50.0
aF0.293716
a(lp837
F0.7502820800000001
aa(lp838
F3.01392
aa(lp839
F0.44629673799999997
aa(lp840
F0.01957553587176266
aaa(lp841
F900.0
aF350.0
aF0.438065
a(lp842
F1.2214004333333333
aa(lp843
F3.01392
aa(lp844
F0.44629673799999997
aa(lp845
F0.0250205046578468
aaa(lp846
F900.0
aF950.0
aF0.551635
a(lp847
F1.6766049333333333
aa(lp848
F3.01392
aa(lp849
F0.44629673799999997
aa(lp850
F0.029332981266826593
aaa(lp851
F900.0
aF700.0
aF0.548483
a(lp852
F1.6625948666666668
aa(lp853
F3.01392
aa(lp854
F0.44629673799999997
aa(lp855
F0.02921783665655089
aaa(lp856
F900.0
aF250.0
aF0.352296
a(lp857
F0.9301867000000001
aa(lp858
F3.01392
aa(lp859
F0.44629673799999997
aa(lp860
F0.021821903104704485
aaa(lp861
F900.0
aF750.0
aF0.543378
a(lp862
F1.6400970333333333
aa(lp863
F3.01392
aa(lp864
F0.44629673799999997
aa(lp865
F0.028956909672438767
aaa(lp866
F900.0
aF500.0
aF0.552369
a(lp867
F1.6798809
aa(lp868
F3.01392
aa(lp869
F0.44629673799999997
aa(lp870
F0.029318580343074822
aaa(lp871
F900.0
aF800.0
aF0.554636
a(lp872
F1.6900300333333333
aa(lp873
F3.01392
aa(lp874
F0.44629673799999997
aa(lp875
F0.02950020363394877
aaa(lp876
F900.0
aF400.0
aF0.497131
a(lp877
F1.4463197333333333
aa(lp878
F3.01392
aa(lp879
F0.44629673799999997
aa(lp880
F0.027202031276277065
aaa(lp881
F900.0
aF150.0
aF0.301836
a(lp882
F0.7744299333333334
aa(lp883
F3.01392
aa(lp884
F0.44629673799999997
aa(lp885
F0.019903028437903616
aaa(lp886
F900.0
aF450.0
aF0.544164
a(lp887
F1.6435478000000001
aa(lp888
F3.01392
aa(lp889
F0.44629673799999997
aa(lp890
F0.02899524819307084
aaa(lp891
F900.0
aF100.0
aF0.292314
a(lp892
F0.7461361
aa(lp893
F3.01392
aa(lp894
F0.44629673799999997
aa(lp895
F0.019567521755875644
aaa(lp896
F900.0
aF600.0
aF0.559519
a(lp897
F1.7120533000000002
aa(lp898
F3.01392
aa(lp899
F0.44629673799999997
aa(lp900
F0.029575362851160046
aaa(lp901
F1000.0
aF550.0
aF0.374459
a(lp902
F1.27354128
aa(lp903
F5.1888000000000005
aa(lp904
F0.5894283600000001
aa(lp905
F0.02228119393928431
aaa(lp906
F1000.0
aF250.0
aF0.223383
a(lp907
F0.7090762920000001
aa(lp908
F5.1888000000000005
aa(lp909
F0.5894283600000001
aa(lp910
F0.016611878294762458
aaa(lp911
F1000.0
aF700.0
aF0.376519
a(lp912
F1.28192524
aa(lp913
F5.1888000000000005
aa(lp914
F0.5894283600000001
aa(lp915
F0.022373151609909592
aaa(lp916
F1000.0
aF850.0
aF0.378285
a(lp917
F1.28912792
aa(lp918
F5.1888000000000005
aa(lp919
F0.5894283600000001
aa(lp920
F0.02241029357772896
aaa(lp921
F1000.0
aF450.0
aF0.341231
a(lp922
F0.8951285666666667
aa(lp923
F3.01392
aa(lp924
F0.44629673799999997
aa(lp925
F0.017069438632310738
aaa(lp926
F1000.0
aF500.0
aF0.371366
a(lp927
F1.26099248
aa(lp928
F5.1888000000000005
aa(lp929
F0.5894283600000001
aa(lp930
F0.02221172863871698
aaa(lp931
F1000.0
aF1000.0
aF0.372742
a(lp932
F0.9963178333333333
aa(lp933
F3.01392
aa(lp934
F0.44629673799999997
aa(lp935
F0.01804342792634851
aaa(lp936
F1000.0
aF200.0
aF0.198992
a(lp937
F0.48467907666666665
aa(lp938
F3.01392
aa(lp939
F0.44629673799999997
aa(lp940
F0.012535269619934168
aaa(lp941
F1000.0
aF750.0
aF0.375509
a(lp942
F1.277811
aa(lp943
F5.1888000000000005
aa(lp944
F0.5894283600000001
aa(lp945
F0.022297951385721514
aaa(lp946
F1000.0
aF800.0
aF0.376294
a(lp947
F1.28100708
aa(lp948
F5.1888000000000005
aa(lp949
F0.5894283600000001
aa(lp950
F0.02242554114218874
aaa(lp951
F1000.0
aF400.0
aF0.305359
a(lp952
F0.7849647
aa(lp953
F3.01392
aa(lp954
F0.44629673799999997
aa(lp955
F0.015969883819935016
aaa(lp956
F1000.0
aF150.0
aF0.189596
a(lp957
F0.593999472
aa(lp958
F5.1888000000000005
aa(lp959
F0.5894283600000001
aa(lp960
F0.015245796315050257
aaa(lp961
F1000.0
aF350.0
aF0.27004
a(lp962
F0.8739642120000001
aa(lp963
F5.1888000000000005
aa(lp964
F0.5894283600000001
aa(lp965
F0.0206569954175335
aaa(lp966
F1000.0
aF300.0
aF0.240639
a(lp967
F0.769208504
aa(lp968
F5.1888000000000005
aa(lp969
F0.5894283600000001
aa(lp970
F0.017312926079666602
aaa(lp971
F1000.0
aF600.0
aF0.381406
a(lp972
F1.3019012
aa(lp973
F5.1888000000000005
aa(lp974
F0.5894283600000001
aa(lp975
F0.022537200397564915
aaa(lp976
F1000.0
aF100.0
aF0.195294
a(lp977
F0.6131696959999999
aa(lp978
F5.1888000000000005
aa(lp979
F0.5894283600000001
aa(lp980
F0.015460240727750653
aaa(lp981
F1000.0
aF50.0
aF0.181121
a(lp982
F0.4375252433333333
aa(lp983
F3.01392
aa(lp984
F0.44629673799999997
aa(lp985
F0.011925610280214407
aaa(lp986
F1000.0
aF900.0
aF0.370808
a(lp987
F1.25873388
aa(lp988
F5.1888000000000005
aa(lp989
F0.5894283600000001
aa(lp990
F0.02215133809050821
aaa(lp991
F1000.0
aF650.0
aF0.375203
a(lp992
F1.27656532
aa(lp993
F5.1888000000000005
aa(lp994
F0.5894283600000001
aa(lp995
F0.022330683772782238
aaa(lp996
F1000.0
aF950.0
aF0.369787
a(lp997
F1.25460492
aa(lp998
F5.1888000000000005
aa(lp999
F0.5894283600000001
aa(lp1000
F0.0221163732903928
aaa(lp1001
F1100.0
aF350.0
aF0.204881
a(lp1002
F0.3114092666666667
aa(lp1003
F1.08698
aa(lp1004
F0.199501126
aa(lp1005
F0.005107814812618014
aaa(lp1006
F1100.0
aF950.0
aF0.312782
a(lp1007
F0.5160773733333334
aa(lp1008
F1.08698
aa(lp1009
F0.199501126
aa(lp1010
F0.0065807772847218515
aaa(lp1011
F1100.0
aF450.0
aF0.258574
a(lp1012
F0.40890688000000003
aa(lp1013
F1.08698
aa(lp1014
F0.199501126
aa(lp1015
F0.005851086686533821
aaa(lp1016
F1100.0
aF50.0
aF0.154559
a(lp1017
F0.22680033200000002
aa(lp1018
F1.08698
aa(lp1019
F0.199501126
aa(lp1020
F0.004360738536838303
aaa(lp1021
F1100.0
aF700.0
aF0.307943
a(lp1022
F0.50611868
aa(lp1023
F1.08698
aa(lp1024
F0.199501126
aa(lp1025
F0.006505832688356571
aaa(lp1026
F1100.0
aF900.0
aF0.305964
a(lp1027
F0.50206792
aa(lp1028
F1.08698
aa(lp1029
F0.199501126
aa(lp1030
F0.006490328138254816
aaa(lp1031
F1100.0
aF200.0
aF0.164295
a(lp1032
F0.24270072266666665
aa(lp1033
F1.08698
aa(lp1034
F0.199501126
aa(lp1035
F0.004510729967040319
aaa(lp1036
F1100.0
aF750.0
aF0.308703
a(lp1037
F0.5076768533333332
aa(lp1038
F1.08698
aa(lp1039
F0.199501126
aa(lp1040
F0.006515105726779199
aaa(lp1041
F1100.0
aF850.0
aF0.306091
a(lp1042
F0.77983294
aa(lp1043
F2.96654
aa(lp1044
F0.424006978
aa(lp1045
F0.014008473584227512
aaa(lp1046
F1100.0
aF800.0
aF0.306655
a(lp1047
F0.781512584
aa(lp1048
F2.96654
aa(lp1049
F0.424006978
aa(lp1050
F0.014018303583529644
aaa(lp1051
F1100.0
aF500.0
aF0.286228
a(lp1052
F0.72137384
aa(lp1053
F2.96654
aa(lp1054
F0.424006978
aa(lp1055
F0.013449012377122713
aaa(lp1056
F1100.0
aF400.0
aF0.228055
a(lp1057
F0.557824152
aa(lp1058
F2.96654
aa(lp1059
F0.424006978
aa(lp1060
F0.011865913770123228
aaa(lp1061
F1100.0
aF600.0
aF0.304817
a(lp1062
F0.49972651999999995
aa(lp1063
F1.08698
aa(lp1064
F0.199501126
aa(lp1065
F0.006456823517626742
aaa(lp1066
F1100.0
aF650.0
aF0.307766
a(lp1067
F0.5057549733333334
aa(lp1068
F1.08698
aa(lp1069
F0.199501126
aa(lp1070
F0.006516247421808215
aaa(lp1071
F1100.0
aF100.0
aF0.150251
a(lp1072
F0.21983314133333334
aa(lp1073
F1.08698
aa(lp1074
F0.199501126
aa(lp1075
F0.004287438000070023
aaa(lp1076
F1100.0
aF1000.0
aF0.308666
a(lp1077
F0.5076011066666667
aa(lp1078
F1.08698
aa(lp1079
F0.199501126
aa(lp1080
F0.006510382381669725
aaa(lp1081
F1100.0
aF300.0
aF0.1938
a(lp1082
F0.466307428
aa(lp1083
F2.96654
aa(lp1084
F0.424006978
aa(lp1085
F0.01082680532013022
aaa(lp1086
F1100.0
aF150.0
aF0.155327
a(lp1087
F0.22804653333333333
aa(lp1088
F1.08698
aa(lp1089
F0.199501126
aa(lp1090
F0.004361383317761057
aaa(lp1091
F1100.0
aF250.0
aF0.181624
a(lp1092
F0.271547292
aa(lp1093
F1.08698
aa(lp1094
F0.199501126
aa(lp1095
F0.004760326125149176
aaa(lp1096
F1100.0
aF550.0
aF0.302917
a(lp1097
F0.4958573066666667
aa(lp1098
F1.08698
aa(lp1099
F0.199501126
aa(lp1100
F0.006441334591871815
aaa(lp1101
F1200.0
aF100.0
aF0.112456
a(lp1102
F0.160441376
aa(lp1103
F1.08698
aa(lp1104
F0.199501126
aa(lp1105
F0.002969609322902032
aaa(lp1106
F1200.0
aF700.0
aF0.226632
a(lp1107
F0.3499480666666667
aa(lp1108
F1.08698
aa(lp1109
F0.199501126
aa(lp1110
F0.004366852574159614
aaa(lp1111
F1200.0
aF200.0
aF0.116738
a(lp1112
F0.167019284
aa(lp1113
F1.08698
aa(lp1114
F0.199501126
aa(lp1115
F0.0030183114202039078
aaa(lp1116
F1200.0
aF750.0
aF0.228434
a(lp1117
F0.35319750666666666
aa(lp1118
F1.08698
aa(lp1119
F0.199501126
aa(lp1120
F0.004393395758787653
aaa(lp1121
F1200.0
aF50.0
aF0.111352
a(lp1122
F0.15875087599999999
aa(lp1123
F1.08698
aa(lp1124
F0.199501126
aa(lp1125
F0.002941344698376351
aaa(lp1126
F1200.0
aF250.0
aF0.122603
a(lp1127
F0.176089932
aa(lp1128
F1.08698
aa(lp1129
F0.199501126
aa(lp1130
F0.0030993290600099597
aaa(lp1131
F1200.0
aF650.0
aF0.224204
a(lp1132
F0.3455842
aa(lp1133
F1.08698
aa(lp1134
F0.199501126
aa(lp1135
F0.004343966619474776
aaa(lp1136
F1200.0
aF550.0
aF0.213586
a(lp1137
F0.3266831066666666
aa(lp1138
F1.08698
aa(lp1139
F0.199501126
aa(lp1140
F0.004224860644644586
aaa(lp1141
F1200.0
aF950.0
aF0.226508
a(lp1142
F0.34972420000000004
aa(lp1143
F1.08698
aa(lp1144
F0.199501126
aa(lp1145
F0.004373943998015725
aaa(lp1146
F1200.0
aF800.0
aF0.225754
a(lp1147
F0.34836812
aa(lp1148
F1.08698
aa(lp1149
F0.199501126
aa(lp1150
F0.004360054835536921
aaa(lp1151
F1200.0
aF850.0
aF0.233066
a(lp1152
F0.3615918933333333
aa(lp1153
F1.08698
aa(lp1154
F0.199501126
aa(lp1155
F0.0044394668608841855
aaa(lp1156
F1200.0
aF1000.0
aF0.224822
a(lp1157
F0.3466934133333333
aa(lp1158
F1.08698
aa(lp1159
F0.199501126
aa(lp1160
F0.004351725344682905
aaa(lp1161
F1200.0
aF350.0
aF0.144248
a(lp1162
F0.210193688
aa(lp1163
F1.08698
aa(lp1164
F0.199501126
aa(lp1165
F0.003384063540249273
aaa(lp1166
F1200.0
aF450.0
aF0.167829
a(lp1167
F0.24852426133333333
aa(lp1168
F1.08698
aa(lp1169
F0.199501126
aa(lp1170
F0.0036868004388026696
aaa(lp1171
F1200.0
aF150.0
aF0.11201
a(lp1172
F0.15975824533333333
aa(lp1173
F1.08698
aa(lp1174
F0.199501126
aa(lp1175
F0.0029569654914004886
aaa(lp1176
F1200.0
aF300.0
aF0.131809
a(lp1177
F0.19047167866666667
aa(lp1178
F1.08698
aa(lp1179
F0.199501126
aa(lp1180
F0.0032297256299017793
aaa(lp1181
F1200.0
aF600.0
aF0.23354
a(lp1182
F0.3624545466666667
aa(lp1183
F1.08698
aa(lp1184
F0.199501126
aa(lp1185
F0.004444703566668485
aaa(lp1186
F1200.0
aF500.0
aF0.185305
a(lp1187
F0.277766308
aa(lp1188
F1.08698
aa(lp1189
F0.199501126
aa(lp1190
F0.0038967717145806154
aaa(lp1191
F1200.0
aF900.0
aF0.228921
a(lp1192
F0.3540782533333333
aa(lp1193
F1.08698
aa(lp1194
F0.199501126
aa(lp1195
F0.00439011087078422
aaa(lp1196
F1200.0
aF400.0
aF0.151289
a(lp1197
F0.22150702
aa(lp1198
F1.08698
aa(lp1199
F0.199501126
aa(lp1200
F0.003886088663710881
aaa(lp1201
F1300.0
aF350.0
aF0.104102
a(lp1202
F0.06397308933333333
aa(lp1203
F0.16951
aa(lp1204
F0.074564344
aa(lp1205
F0.0015129119577820779
aaa(lp1206
F1300.0
aF550.0
aF0.149767
a(lp1207
F0.09881879466666665
aa(lp1208
F0.16951
aa(lp1209
F0.074564344
aa(lp1210
F0.0018792820080492918
aaa(lp1211
F1300.0
aF450.0
aF0.123894
a(lp1212
F0.07851019333333333
aa(lp1213
F0.16951
aa(lp1214
F0.074564344
aa(lp1215
F0.0016795780861738926
aaa(lp1216
F1300.0
aF50.0
aF0.084156
a(lp1217
F0.05014806533333334
aa(lp1218
F0.16951
aa(lp1219
F0.074564344
aa(lp1220
F0.0013417015385944323
aaa(lp1221
F1300.0
aF900.0
aF0.176784
a(lp1222
F0.258350812
aa(lp1223
F1.04282
aa(lp1224
F0.189935978
aa(lp1225
F0.0030480823217229553
aaa(lp1226
F1300.0
aF650.0
aF0.176465
a(lp1227
F0.25782659599999996
aa(lp1228
F1.04282
aa(lp1229
F0.189935978
aa(lp1230
F0.0030385153283945913
aaa(lp1231
F1300.0
aF200.0
aF0.090539
a(lp1232
F0.05448482266666667
aa(lp1233
F0.16951
aa(lp1234
F0.074564344
aa(lp1235
F0.0013998102245979236
aaa(lp1236
F1300.0
aF1000.0
aF0.175288
a(lp1237
F0.2558936146666667
aa(lp1238
F1.04282
aa(lp1239
F0.189935978
aa(lp1240
F0.003037540222102234
aaa(lp1241
F1300.0
aF150.0
aF0.085251
a(lp1242
F0.050886457333333336
aa(lp1243
F0.16951
aa(lp1244
F0.074564344
aa(lp1245
F0.0013522918626457006
aaa(lp1246
F1300.0
aF500.0
aF0.136675
a(lp1247
F0.08835256799999999
aa(lp1248
F0.16951
aa(lp1249
F0.074564344
aa(lp1250
F0.0017777501316739274
aaa(lp1251
F1300.0
aF100.0
aF0.085029
a(lp1252
F0.05073692666666666
aa(lp1253
F0.16951
aa(lp1254
F0.074564344
aa(lp1255
F0.0013487948167819216
aaa(lp1256
F1300.0
aF950.0
aF0.174007
a(lp1257
F0.2537930093333333
aa(lp1258
F1.04282
aa(lp1259
F0.189935978
aa(lp1260
F0.00302327392047466
aaa(lp1261
F1300.0
aF600.0
aF0.164502
a(lp1262
F0.11108224133333333
aa(lp1263
F0.16951
aa(lp1264
F0.074564344
aa(lp1265
F0.0019957396859866822
aaa(lp1266
F1300.0
aF250.0
aF0.097532
a(lp1267
F0.05932963466666667
aa(lp1268
F0.16951
aa(lp1269
F0.074564344
aa(lp1270
F0.0014566276064938491
aaa(lp1271
F1300.0
aF850.0
aF0.176149
a(lp1272
F0.2573071333333333
aa(lp1273
F1.04282
aa(lp1274
F0.189935978
aa(lp1275
F0.0030400030780686174
aaa(lp1276
F1300.0
aF300.0
aF0.099817
a(lp1277
F0.060934727999999994
aa(lp1278
F0.16951
aa(lp1279
F0.074564344
aa(lp1280
F0.0014826887756145364
aaa(lp1281
F1300.0
aF400.0
aF0.115013
a(lp1282
F0.07188328000000001
aa(lp1283
F0.16951
aa(lp1284
F0.074564344
aa(lp1285
F0.0016053535746232215
aaa(lp1286
F1300.0
aF750.0
aF0.176838
a(lp1287
F0.2584404813333333
aa(lp1288
F1.04282
aa(lp1289
F0.189935978
aa(lp1290
F0.0030487156812154343
aaa(lp1291
F1300.0
aF700.0
aF0.173849
a(lp1292
F0.2535346426666667
aa(lp1293
F1.04282
aa(lp1294
F0.189935978
aa(lp1295
F0.0030167735385857376
aaa(lp1296
F1300.0
aF800.0
aF0.172297
a(lp1297
F0.25099516666666666
aa(lp1298
F1.04282
aa(lp1299
F0.189935978
aa(lp1300
F0.003000180357837768
aaa(lp1301
F1400.0
aF50.0
aF0.087107
a(lp1302
F0.05214305466666667
aa(lp1303
F0.16951
aa(lp1304
F0.074564344
aa(lp1305
F0.0011132130945051704
aaa(lp1306
F1400.0
aF400.0
aF0.109709
a(lp1307
F0.06800661466666666
aa(lp1308
F0.16951
aa(lp1309
F0.074564344
aa(lp1310
F0.0012714290528552683
aaa(lp1311
F1400.0
aF350.0
aF0.104289
a(lp1312
F0.06410648933333334
aa(lp1313
F0.16951
aa(lp1314
F0.074564344
aa(lp1315
F0.0012337299477600437
aaa(lp1316
F1400.0
aF600.0
aF0.153391
a(lp1317
F0.10178662266666667
aa(lp1318
F0.16951
aa(lp1319
F0.074564344
aa(lp1320
F0.001556217460382706
aaa(lp1321
F1400.0
aF550.0
aF0.141433
a(lp1322
F0.092110492
aa(lp1323
F0.16951
aa(lp1324
F0.074564344
aa(lp1325
F0.0016535530934593207
aaa(lp1326
F1400.0
aF850.0
aF0.172458
a(lp1327
F0.11792336133333334
aa(lp1328
F0.16951
aa(lp1329
F0.074564344
aa(lp1330
F0.0016703626906220763
aaa(lp1331
F1400.0
aF900.0
aF0.17249
a(lp1332
F0.11795056266666668
aa(lp1333
F0.16951
aa(lp1334
F0.074564344
aa(lp1335
F0.0016727633637520613
aaa(lp1336
F1400.0
aF100.0
aF0.08533
a(lp1337
F0.050939572
aa(lp1338
F0.16951
aa(lp1339
F0.074564344
aa(lp1340
F0.001098591120379997
aaa(lp1341
F1400.0
aF700.0
aF0.17119
a(lp1342
F0.11682190666666666
aa(lp1343
F0.16951
aa(lp1344
F0.074564344
aa(lp1345
F0.0016639677945601392
aaa(lp1346
F1400.0
aF150.0
aF0.086419
a(lp1347
F0.05167664533333334
aa(lp1348
F0.16951
aa(lp1349
F0.074564344
aa(lp1350
F0.0011057780866380418
aaa(lp1351
F1400.0
aF800.0
aF0.170965
a(lp1352
F0.11662763333333334
aa(lp1353
F0.16951
aa(lp1354
F0.074564344
aa(lp1355
F0.0016613690370695287
aaa(lp1356
F1400.0
aF450.0
aF0.116322
a(lp1357
F0.07284928
aa(lp1358
F0.16951
aa(lp1359
F0.074564344
aa(lp1360
F0.0013150033301183013
aaa(lp1361
F1400.0
aF950.0
aF0.175016
a(lp1362
F0.12015629333333333
aa(lp1363
F0.16951
aa(lp1364
F0.074564344
aa(lp1365
F0.0016908333019878426
aaa(lp1366
F1400.0
aF300.0
aF0.099637
a(lp1367
F0.060808044000000006
aa(lp1368
F0.16951
aa(lp1369
F0.074564344
aa(lp1370
F0.0012044147399371107
aaa(lp1371
F1400.0
aF250.0
aF0.090863
a(lp1372
F0.05470700266666667
aa(lp1373
F0.16951
aa(lp1374
F0.074564344
aa(lp1375
F0.0011407200330395613
aaa(lp1376
F1400.0
aF500.0
aF0.125203
a(lp1377
F0.07950137066666667
aa(lp1378
F0.16951
aa(lp1379
F0.074564344
aa(lp1380
F0.001375012082047928
aaa(lp1381
F1400.0
aF650.0
aF0.163552
a(lp1382
F0.11027595333333333
aa(lp1383
F0.16951
aa(lp1384
F0.074564344
aa(lp1385
F0.0016196050629705995
aaa(lp1386
F1400.0
aF1000.0
aF0.174435
a(lp1387
F0.11964731866666665
aa(lp1388
F0.16951
aa(lp1389
F0.074564344
aa(lp1390
F0.0016888629216132373
aaa(lp1391
F1400.0
aF200.0
aF0.088368
a(lp1392
F0.05300070933333334
aa(lp1393
F0.16951
aa(lp1394
F0.074564344
aa(lp1395
F0.0011238649274317224
aaa(lp1396
F1400.0
aF750.0
aF0.174426
a(lp1397
F0.11963897733333333
aa(lp1398
F0.16951
aa(lp1399
F0.074564344
aa(lp1400
F0.0016872330685342662
aaa(lp1401
F1500.0
aF950.0
aF0.135694
a(lp1402
F0.08758329466666666
aa(lp1403
F0.16951
aa(lp1404
F0.074564344
aa(lp1405
F0.0011761712165610355
aaa(lp1406
F1500.0
aF350.0
aF0.074844
a(lp1407
F0.043965665333333334
aa(lp1408
F0.16951
aa(lp1409
F0.074564344
aa(lp1410
F0.0008349078707924074
aaa(lp1411
F1500.0
aF150.0
aF0.065676
a(lp1412
F0.038041938666666664
aa(lp1413
F0.16951
aa(lp1414
F0.074564344
aa(lp1415
F0.0007757201073697767
aaa(lp1416
F1500.0
aF400.0
aF0.082675
a(lp1417
F0.04915336133333333
aa(lp1418
F0.16951
aa(lp1419
F0.074564344
aa(lp1420
F0.000987421427535151
aaa(lp1421
F1500.0
aF200.0
aF0.065658
a(lp1422
F0.03803065333333333
aa(lp1423
F0.16951
aa(lp1424
F0.074564344
aa(lp1425
F0.0007753291471368789
aaa(lp1426
F1500.0
aF500.0
aF0.092422
a(lp1427
F0.05577944666666667
aa(lp1428
F0.16951
aa(lp1429
F0.074564344
aa(lp1430
F0.0009382982232389303
aaa(lp1431
F1500.0
aF600.0
aF0.107035
a(lp1432
F0.06607418533333333
aa(lp1433
F0.16951
aa(lp1434
F0.074564344
aa(lp1435
F0.0010203975626087009
aaa(lp1436
F1500.0
aF850.0
aF0.136274
a(lp1437
F0.08803811199999999
aa(lp1438
F0.16951
aa(lp1439
F0.074564344
aa(lp1440
F0.0011796227419532625
aaa(lp1441
F1500.0
aF1000.0
aF0.137501
a(lp1442
F0.08900061599999999
aa(lp1443
F0.16951
aa(lp1444
F0.074564344
aa(lp1445
F0.001186885578309889
aaa(lp1446
F1500.0
aF800.0
aF0.134892
a(lp1447
F0.08695698933333333
aa(lp1448
F0.16951
aa(lp1449
F0.074564344
aa(lp1450
F0.0011733817679397158
aaa(lp1451
F1500.0
aF50.0
aF0.066031
a(lp1452
F0.038268534666666666
aa(lp1453
F0.16951
aa(lp1454
F0.074564344
aa(lp1455
F0.0007792073533762085
aaa(lp1456
F1500.0
aF300.0
aF0.074772
a(lp1457
F0.04391825466666666
aa(lp1458
F0.16951
aa(lp1459
F0.074564344
aa(lp1460
F0.000834007782217888
aaa(lp1461
F1500.0
aF100.0
aF0.066351
a(lp1462
F0.038472652
aa(lp1463
F0.16951
aa(lp1464
F0.074564344
aa(lp1465
F0.0007801362522591095
aaa(lp1466
F1500.0
aF750.0
aF0.134664
a(lp1467
F0.08677924533333332
aa(lp1468
F0.16951
aa(lp1469
F0.074564344
aa(lp1470
F0.0011710896950181816
aaa(lp1471
F1500.0
aF650.0
aF0.117374
a(lp1472
F0.07362861200000001
aa(lp1473
F0.16951
aa(lp1474
F0.074564344
aa(lp1475
F0.0010792784684428964
aaa(lp1476
F1500.0
aF450.0
aF0.08518
a(lp1477
F0.050838310666666664
aa(lp1478
F0.16951
aa(lp1479
F0.074564344
aa(lp1480
F0.0008984220681963585
aaa(lp1481
F1500.0
aF250.0
aF0.068614
a(lp1482
F0.039923032000000004
aa(lp1483
F0.16951
aa(lp1484
F0.074564344
aa(lp1485
F0.0007959177536515803
aaa(lp1486
F1500.0
aF900.0
aF0.133311
a(lp1487
F0.08572648933333334
aa(lp1488
F0.16951
aa(lp1489
F0.074564344
aa(lp1490
F0.001162079334067458
aaa(lp1491
F1500.0
aF700.0
aF0.12784
a(lp1492
F0.081509976
aa(lp1493
F0.16951
aa(lp1494
F0.074564344
aa(lp1495
F0.0011349322752188052
aaa(lp1496
F1500.0
aF550.0
aF0.101599
a(lp1497
F0.06219347200000001
aa(lp1498
F0.16951
aa(lp1499
F0.074564344
aa(lp1500
F0.0009937291891321967
aaa.